Archive member included because of file (symbol)

libbb/lib.a(appletlib.o)      /data/xiaoning/RealTek/HN120/toolchain/msdk-4.4.7-mips-EL-3.10-u0.9.33-m32t-140827/bin/../lib/gcc/mips-linux-uclibc/4.4.7/../../../../mips-linux-uclibc/lib/crt1.o (main)
libbb/lib.a(bb_basename.o)    libbb/lib.a(appletlib.o) (bb_basename)
libbb/lib.a(default_error_retval.o)
                              libbb/lib.a(appletlib.o) (xfunc_error_retval)
libbb/lib.a(error_msg_and_die.o)
                              libbb/lib.a(appletlib.o) (bb_error_msg_and_die)
libbb/lib.a(full_write.o)     libbb/lib.a(appletlib.o) (full_write)
libbb/lib.a(get_last_path_component.o)
                              libbb/lib.a(appletlib.o) (bb_get_last_path_component_nostrip)
libbb/lib.a(last_char_is.o)   libbb/lib.a(get_last_path_component.o) (last_char_is)
libbb/lib.a(messages.o)       libbb/lib.a(appletlib.o) (bb_banner)
libbb/lib.a(ptr_to_globals.o)
                              libbb/lib.a(appletlib.o) (bb_errno)
libbb/lib.a(safe_write.o)     libbb/lib.a(full_write.o) (safe_write)
libbb/lib.a(verror_msg.o)     libbb/lib.a(error_msg_and_die.o) (bb_verror_msg)
libbb/lib.a(xfunc_die.o)      libbb/lib.a(appletlib.o) (xfunc_die)
libbb/lib.a(xfuncs_printf.o)  libbb/lib.a(appletlib.o) (xsetuid)
libbb/lib.a(copyfd.o)         libbb/lib.a(xfuncs_printf.o) (bb_copyfd_eof)
libbb/lib.a(error_msg.o)      libbb/lib.a(xfuncs_printf.o) (bb_error_msg)
libbb/lib.a(perror_msg.o)     libbb/lib.a(xfuncs_printf.o) (bb_perror_msg)
libbb/lib.a(perror_msg_and_die.o)
                              libbb/lib.a(xfuncs_printf.o) (bb_perror_msg_and_die)
libbb/lib.a(read.o)           libbb/lib.a(copyfd.o) (safe_read)
libbb/lib.a(safe_poll.o)      libbb/lib.a(read.o) (safe_poll)
loginutils/lib.a(login.o)     libbb/lib.a(appletlib.o) (login_main)
modutils/lib.a(depmod.o)      libbb/lib.a(appletlib.o) (depmod_main)
modutils/lib.a(insmod.o)      libbb/lib.a(appletlib.o) (insmod_main)
modutils/lib.a(lsmod.o)       libbb/lib.a(appletlib.o) (lsmod_main)
modutils/lib.a(modprobe.o)    libbb/lib.a(appletlib.o) (modprobe_main)
modutils/lib.a(modutils.o)    modutils/lib.a(modprobe.o) (bb_delete_module)
modutils/lib.a(rmmod.o)       libbb/lib.a(appletlib.o) (rmmod_main)
networking/lib.a(hostname.o)  libbb/lib.a(appletlib.o) (hostname_main)
networking/lib.a(ifconfig.o)  libbb/lib.a(appletlib.o) (ifconfig_main)
networking/lib.a(interface.o)
                              networking/lib.a(ifconfig.o) (display_interfaces)
networking/lib.a(ip.o)        libbb/lib.a(appletlib.o) (ip_main)
networking/lib.a(ping.o)      libbb/lib.a(appletlib.o) (ping_main)
networking/lib.a(route.o)     libbb/lib.a(appletlib.o) (route_main)
networking/lib.a(telnetd.o)   libbb/lib.a(appletlib.o) (telnetd_main)
networking/lib.a(tftp.o)      libbb/lib.a(appletlib.o) (tftp_main)
networking/lib.a(traceroute.o)
                              libbb/lib.a(appletlib.o) (traceroute_main)
networking/lib.a(vconfig.o)   libbb/lib.a(appletlib.o) (vconfig_main)
networking/libiproute/lib.a(ip_parse_common_args.o)
                              networking/lib.a(ip.o) (ip_parse_common_args)
networking/libiproute/lib.a(iptunnel.o)
                              networking/lib.a(ip.o) (do_iptunnel)
networking/libiproute/lib.a(rt_names.o)
                              networking/libiproute/lib.a(iptunnel.o) (rtnl_dsfield_a2n)
networking/libiproute/lib.a(utils.o)
                              networking/libiproute/lib.a(iptunnel.o) (format_host)
procps/lib.a(free.o)          libbb/lib.a(appletlib.o) (free_main)
procps/lib.a(kill.o)          libbb/lib.a(appletlib.o) (kill_main)
procps/lib.a(ps.o)            libbb/lib.a(appletlib.o) (ps_main)
procps/lib.a(renice.o)        libbb/lib.a(appletlib.o) (renice_main)
procps/lib.a(top.o)           libbb/lib.a(appletlib.o) (top_main)
procps/lib.a(uptime.o)        libbb/lib.a(appletlib.o) (uptime_main)
shell/lib.a(ash.o)            libbb/lib.a(appletlib.o) (ash_main)
shell/lib.a(ash_ptr_hack.o)   shell/lib.a(ash.o) (ash_ptr_to_globals_misc)
sysklogd/lib.a(klogd.o)       libbb/lib.a(appletlib.o) (klogd_main)
sysklogd/lib.a(syslogd_and_logger.o)
                              libbb/lib.a(appletlib.o) (syslogd_main)
util-linux/lib.a(mount.o)     libbb/lib.a(appletlib.o) (mount_main)
util-linux/lib.a(umount.o)    libbb/lib.a(appletlib.o) (umount_main)
archival/lib.a(bbunzip.o)     libbb/lib.a(appletlib.o) (bunzip2_main)
archival/libunarchive/lib.a(decompress_bunzip2.o)
                              archival/lib.a(bbunzip.o) (unpack_bz2_stream_prime)
coreutils/lib.a(cat.o)        libbb/lib.a(appletlib.o) (cat_main)
coreutils/lib.a(chmod.o)      libbb/lib.a(appletlib.o) (chmod_main)
coreutils/lib.a(cp.o)         libbb/lib.a(appletlib.o) (cp_main)
coreutils/lib.a(cut.o)        libbb/lib.a(appletlib.o) (cut_main)
coreutils/lib.a(date.o)       libbb/lib.a(appletlib.o) (date_main)
coreutils/lib.a(echo.o)       libbb/lib.a(appletlib.o) (echo_main)
coreutils/lib.a(expr.o)       libbb/lib.a(appletlib.o) (expr_main)
coreutils/lib.a(false.o)      libbb/lib.a(appletlib.o) (false_main)
coreutils/lib.a(head.o)       libbb/lib.a(appletlib.o) (head_main)
coreutils/lib.a(ln.o)         libbb/lib.a(appletlib.o) (ln_main)
coreutils/lib.a(ls.o)         libbb/lib.a(appletlib.o) (ls_main)
coreutils/lib.a(mkdir.o)      libbb/lib.a(appletlib.o) (mkdir_main)
coreutils/lib.a(printf.o)     shell/lib.a(ash.o) (printf_main)
coreutils/lib.a(rm.o)         libbb/lib.a(appletlib.o) (rm_main)
coreutils/lib.a(sleep.o)      libbb/lib.a(appletlib.o) (sleep_main)
coreutils/lib.a(tail.o)       libbb/lib.a(appletlib.o) (tail_main)
coreutils/lib.a(test.o)       shell/lib.a(ash.o) (test_main)
coreutils/lib.a(test_ptr_hack.o)
                              coreutils/lib.a(test.o) (test_ptr_to_statics)
coreutils/lib.a(true.o)       libbb/lib.a(appletlib.o) (true_main)
coreutils/lib.a(wc.o)         libbb/lib.a(appletlib.o) (wc_main)
coreutils/libcoreutils/lib.a(cp_mv_stat.o)
                              coreutils/lib.a(cp.o) (cp_mv_stat2)
editors/lib.a(awk.o)          libbb/lib.a(appletlib.o) (awk_main)
findutils/lib.a(grep.o)       libbb/lib.a(appletlib.o) (grep_main)
init/lib.a(halt.o)            libbb/lib.a(appletlib.o) (halt_main)
init/lib.a(init.o)            libbb/lib.a(appletlib.o) (init_main)
libbb/lib.a(bb_do_delay.o)    loginutils/lib.a(login.o) (bb_do_delay)
libbb/lib.a(bb_strtonum.o)    procps/lib.a(kill.o) (bb_strtol)
libbb/lib.a(change_identity.o)
                              loginutils/lib.a(login.o) (change_identity)
libbb/lib.a(compare_string_array.o)
                              networking/lib.a(tftp.o) (nth_string)
libbb/lib.a(concat_path_file.o)
                              modutils/lib.a(depmod.o) (concat_path_file)
libbb/lib.a(copy_file.o)      coreutils/lib.a(cp.o) (copy_file)
libbb/lib.a(correct_password.o)
                              loginutils/lib.a(login.o) (correct_password)
libbb/lib.a(crc32.o)          archival/libunarchive/lib.a(decompress_bunzip2.o) (crc32_filltable)
libbb/lib.a(create_icmp6_socket.o)
                              networking/lib.a(ping.o) (create_icmp6_socket)
libbb/lib.a(create_icmp_socket.o)
                              networking/lib.a(ping.o) (create_icmp_socket)
libbb/lib.a(device_open.o)    sysklogd/lib.a(syslogd_and_logger.o) (device_open)
libbb/lib.a(execable.o)       networking/lib.a(telnetd.o) (bb_execvp)
libbb/lib.a(fclose_nonstdin.o)
                              coreutils/lib.a(cut.o) (fclose_if_not_stdin)
libbb/lib.a(fflush_stdout_and_exit.o)
                              networking/lib.a(route.o) (fflush_stdout_and_exit)
libbb/lib.a(find_pid_by_name.o)
                              procps/lib.a(kill.o) (find_pid_by_name)
libbb/lib.a(get_line_from_file.o)
                              util-linux/lib.a(mount.o) (xmalloc_fgetline)
libbb/lib.a(getopt32.o)       loginutils/lib.a(login.o) (getopt32)
libbb/lib.a(getpty.o)         networking/lib.a(telnetd.o) (xgetpty)
libbb/lib.a(inet_common.o)    networking/lib.a(interface.o) (INET6_rresolve)
libbb/lib.a(info_msg.o)       networking/lib.a(traceroute.o) (bb_info_msg)
libbb/lib.a(inode_hash.o)     libbb/lib.a(copy_file.o) (is_in_ino_dev_hashtable)
libbb/lib.a(isdirectory.o)    coreutils/lib.a(ln.o) (is_directory)
libbb/lib.a(lineedit.o)       shell/lib.a(ash.o) (new_line_input_t)
libbb/lib.a(lineedit_ptr_hack.o)
                              libbb/lib.a(lineedit.o) (lineedit_ptr_to_statics)
libbb/lib.a(llist.o)          modutils/lib.a(modprobe.o) (llist_rev)
libbb/lib.a(login.o)          loginutils/lib.a(login.o) (sanitize_env_if_suid)
libbb/lib.a(make_directory.o)
                              coreutils/lib.a(mkdir.o) (bb_make_directory)
libbb/lib.a(match_fstype.o)   util-linux/lib.a(mount.o) (match_fstype)
libbb/lib.a(mode_string.o)    coreutils/lib.a(ls.o) (bb_mode_string)
libbb/lib.a(mtab_file.o)      util-linux/lib.a(mount.o) (bb_path_mtab_file)
libbb/lib.a(parse_config.o)   loginutils/lib.a(login.o) (config_read)
libbb/lib.a(parse_mode.o)     shell/lib.a(ash.o) (bb_parse_mode)
libbb/lib.a(perror_nomsg_and_die.o)
                              coreutils/lib.a(tail.o) (bb_perror_nomsg_and_die)
libbb/lib.a(process_escape_sequence.o)
                              shell/lib.a(ash.o) (bb_process_escape_sequence)
libbb/lib.a(procps.o)         procps/lib.a(ps.o) (read_cmdline)
libbb/lib.a(pw_encrypt.o)     libbb/lib.a(correct_password.o) (pw_encrypt)
libbb/lib.a(recursive_action.o)
                              modutils/lib.a(depmod.o) (recursive_action)
libbb/lib.a(remove_file.o)    coreutils/lib.a(rm.o) (remove_file)
libbb/lib.a(run_shell.o)      loginutils/lib.a(login.o) (run_shell)
libbb/lib.a(safe_gethostname.o)
                              networking/lib.a(hostname.o) (safe_gethostname)
libbb/lib.a(safe_strncpy.o)   sysklogd/lib.a(klogd.o) (overlapping_strcpy)
libbb/lib.a(setup_environment.o)
                              loginutils/lib.a(login.o) (setup_environment)
libbb/lib.a(signals.o)        init/lib.a(init.o) (record_signo)
libbb/lib.a(simplify_path.o)  util-linux/lib.a(mount.o) (bb_simplify_path)
libbb/lib.a(skip_whitespace.o)
                              procps/lib.a(top.o) (skip_non_whitespace)
libbb/lib.a(strrstr.o)        modutils/lib.a(depmod.o) (strrstr)
libbb/lib.a(time.o)           sysklogd/lib.a(syslogd_and_logger.o) (monotonic_sec)
libbb/lib.a(u_signal_names.o)
                              procps/lib.a(kill.o) (print_signames)
libbb/lib.a(vfork_daemon_rexec.o)
                              loginutils/lib.a(login.o) (bb_daemonize_or_rexec)
libbb/lib.a(wfopen.o)         networking/lib.a(hostname.o) (xfopen_for_read)
libbb/lib.a(wfopen_input.o)   coreutils/lib.a(cat.o) (open_or_warn_stdin)
libbb/lib.a(xatonum.o)        procps/lib.a(renice.o) (xatol_range)
libbb/lib.a(xconnect.o)       networking/lib.a(ping.o) (xmalloc_sockaddr2dotted_noport)
libbb/lib.a(xfuncs.o)         procps/lib.a(ps.o) (smart_ulltoa5)
libbb/lib.a(xgetcwd.o)        libbb/lib.a(simplify_path.o) (xrealloc_getcwd_or_warn)
libbb/lib.a(xgethostbyname.o)
                              networking/lib.a(hostname.o) (xgethostbyname)
libbb/lib.a(xreadlink.o)      coreutils/lib.a(ls.o) (xmalloc_readlink_or_warn)
libbb/lib.a(xrealloc_vector.o)
                              procps/lib.a(top.o) (xrealloc_vector_helper)
libbb/lib.a(xregcomp.o)       coreutils/lib.a(expr.o) (xregcomp)
libbb/lib.a(ask_confirmation.o)
                              libbb/lib.a(copy_file.o) (bb_ask_confirmation)
libbb/lib.a(bb_askpass.o)     libbb/lib.a(correct_password.o) (bb_askpass)
libbb/lib.a(bb_pwd.o)         libbb/lib.a(procps.o) (bb_getgrgid)
libbb/lib.a(bb_qsort.o)       libbb/lib.a(lineedit.o) (qsort_string_vector)
libbb/lib.a(concat_subpath_file.o)
                              libbb/lib.a(copy_file.o) (concat_subpath_file)
libbb/lib.a(herror_msg_and_die.o)
                              libbb/lib.a(xgethostbyname.o) (bb_herror_msg_and_die)
/data/xiaoning/RealTek/HN120/toolchain/msdk-4.4.7-mips-EL-3.10-u0.9.33-m32t-140827/bin/../lib/gcc/mips-linux-uclibc/4.4.7/soft-float/el/libgcc.a(_bswapsi2.o)
                              networking/lib.a(route.o) (__bswapsi2)
/data/xiaoning/RealTek/HN120/toolchain/msdk-4.4.7-mips-EL-3.10-u0.9.33-m32t-140827/bin/../lib/gcc/mips-linux-uclibc/4.4.7/soft-float/el/libgcc.a(_fixunsdfsi.o)
                              editors/lib.a(awk.o) (__fixunsdfsi)
/data/xiaoning/RealTek/HN120/toolchain/msdk-4.4.7-mips-EL-3.10-u0.9.33-m32t-140827/bin/../lib/gcc/mips-linux-uclibc/4.4.7/soft-float/el/libgcc.a(_udivdi3.o)
                              networking/lib.a(ping.o) (__udivdi3)
/data/xiaoning/RealTek/HN120/toolchain/msdk-4.4.7-mips-EL-3.10-u0.9.33-m32t-140827/bin/../lib/gcc/mips-linux-uclibc/4.4.7/soft-float/el/libgcc.a(adddf3.o)
                              editors/lib.a(awk.o) (__adddf3)
/data/xiaoning/RealTek/HN120/toolchain/msdk-4.4.7-mips-EL-3.10-u0.9.33-m32t-140827/bin/../lib/gcc/mips-linux-uclibc/4.4.7/soft-float/el/libgcc.a(divdf3.o)
                              editors/lib.a(awk.o) (__divdf3)
/data/xiaoning/RealTek/HN120/toolchain/msdk-4.4.7-mips-EL-3.10-u0.9.33-m32t-140827/bin/../lib/gcc/mips-linux-uclibc/4.4.7/soft-float/el/libgcc.a(eqdf2.o)
                              editors/lib.a(awk.o) (__eqdf2)
/data/xiaoning/RealTek/HN120/toolchain/msdk-4.4.7-mips-EL-3.10-u0.9.33-m32t-140827/bin/../lib/gcc/mips-linux-uclibc/4.4.7/soft-float/el/libgcc.a(gedf2.o)
                              editors/lib.a(awk.o) (__gedf2)
/data/xiaoning/RealTek/HN120/toolchain/msdk-4.4.7-mips-EL-3.10-u0.9.33-m32t-140827/bin/../lib/gcc/mips-linux-uclibc/4.4.7/soft-float/el/libgcc.a(ledf2.o)
                              libbb/lib.a(bb_do_delay.o) (__ltdf2)
/data/xiaoning/RealTek/HN120/toolchain/msdk-4.4.7-mips-EL-3.10-u0.9.33-m32t-140827/bin/../lib/gcc/mips-linux-uclibc/4.4.7/soft-float/el/libgcc.a(muldf3.o)
                              editors/lib.a(awk.o) (__muldf3)
/data/xiaoning/RealTek/HN120/toolchain/msdk-4.4.7-mips-EL-3.10-u0.9.33-m32t-140827/bin/../lib/gcc/mips-linux-uclibc/4.4.7/soft-float/el/libgcc.a(subdf3.o)
                              editors/lib.a(awk.o) (__subdf3)
/data/xiaoning/RealTek/HN120/toolchain/msdk-4.4.7-mips-EL-3.10-u0.9.33-m32t-140827/bin/../lib/gcc/mips-linux-uclibc/4.4.7/soft-float/el/libgcc.a(fixdfsi.o)
                              editors/lib.a(awk.o) (__fixdfsi)
/data/xiaoning/RealTek/HN120/toolchain/msdk-4.4.7-mips-EL-3.10-u0.9.33-m32t-140827/bin/../lib/gcc/mips-linux-uclibc/4.4.7/soft-float/el/libgcc.a(floatsidf.o)
                              editors/lib.a(awk.o) (__floatsidf)
/data/xiaoning/RealTek/HN120/toolchain/msdk-4.4.7-mips-EL-3.10-u0.9.33-m32t-140827/bin/../lib/gcc/mips-linux-uclibc/4.4.7/soft-float/el/libgcc.a(floatunsidf.o)
                              editors/lib.a(awk.o) (__floatunsidf)

Allocating common symbols
Common symbol       size              file

bb_common_bufsiz1   0x1001            libbb/lib.a(messages.o)
die_jmp             0x80              libbb/lib.a(xfunc_die.o)
applet_name         0x4               libbb/lib.a(appletlib.o)
opt_complementary   0x4               libbb/lib.a(getopt32.o)
lineedit_ptr_to_statics
                    0x4               libbb/lib.a(lineedit_ptr_hack.o)
bb_errno            0x4               libbb/lib.a(ptr_to_globals.o)
ash_ptr_to_globals_memstack
                    0x4               shell/lib.a(ash_ptr_hack.o)
ash_ptr_to_globals_misc
                    0x4               shell/lib.a(ash_ptr_hack.o)
option_mask32       0x4               libbb/lib.a(getopt32.o)
die_sleep           0x4               libbb/lib.a(xfunc_die.o)
ash_ptr_to_globals_var
                    0x4               shell/lib.a(ash_ptr_hack.o)
test_ptr_to_statics
                    0x4               coreutils/lib.a(test_ptr_hack.o)
ptr_to_globals      0x4               libbb/lib.a(ptr_to_globals.o)
_SL_                0x1               networking/libiproute/lib.a(ip_parse_common_args.o)
oneline             0x1               networking/libiproute/lib.a(ip_parse_common_args.o)
bb_got_signal       0x1               libbb/lib.a(signals.o)
interface_opt_a     0x1               networking/lib.a(interface.o)

Discarded input sections

 .data          0x0000000000000000       0x10 /data/xiaoning/RealTek/HN120/toolchain/msdk-4.4.7-mips-EL-3.10-u0.9.33-m32t-140827/bin/../lib/gcc/mips-linux-uclibc/4.4.7/../../../../mips-linux-uclibc/lib/crt1.o
 .bss           0x0000000000000000        0x0 /data/xiaoning/RealTek/HN120/toolchain/msdk-4.4.7-mips-EL-3.10-u0.9.33-m32t-140827/bin/../lib/gcc/mips-linux-uclibc/4.4.7/../../../../mips-linux-uclibc/lib/crt1.o
 .reginfo       0x0000000000000000       0x18 /data/xiaoning/RealTek/HN120/toolchain/msdk-4.4.7-mips-EL-3.10-u0.9.33-m32t-140827/bin/../lib/gcc/mips-linux-uclibc/4.4.7/../../../../mips-linux-uclibc/lib/crt1.o
 .pdr           0x0000000000000000       0x20 /data/xiaoning/RealTek/HN120/toolchain/msdk-4.4.7-mips-EL-3.10-u0.9.33-m32t-140827/bin/../lib/gcc/mips-linux-uclibc/4.4.7/../../../../mips-linux-uclibc/lib/crt1.o
 .note.GNU-stack
                0x0000000000000000        0x0 /data/xiaoning/RealTek/HN120/toolchain/msdk-4.4.7-mips-EL-3.10-u0.9.33-m32t-140827/bin/../lib/gcc/mips-linux-uclibc/4.4.7/../../../../mips-linux-uclibc/lib/crt1.o
 .text          0x0000000000000000        0x0 /data/xiaoning/RealTek/HN120/toolchain/msdk-4.4.7-mips-EL-3.10-u0.9.33-m32t-140827/bin/../lib/gcc/mips-linux-uclibc/4.4.7/../../../../mips-linux-uclibc/lib/crti.o
 .data          0x0000000000000000        0x0 /data/xiaoning/RealTek/HN120/toolchain/msdk-4.4.7-mips-EL-3.10-u0.9.33-m32t-140827/bin/../lib/gcc/mips-linux-uclibc/4.4.7/../../../../mips-linux-uclibc/lib/crti.o
 .bss           0x0000000000000000        0x0 /data/xiaoning/RealTek/HN120/toolchain/msdk-4.4.7-mips-EL-3.10-u0.9.33-m32t-140827/bin/../lib/gcc/mips-linux-uclibc/4.4.7/../../../../mips-linux-uclibc/lib/crti.o
 .reginfo       0x0000000000000000       0x18 /data/xiaoning/RealTek/HN120/toolchain/msdk-4.4.7-mips-EL-3.10-u0.9.33-m32t-140827/bin/../lib/gcc/mips-linux-uclibc/4.4.7/../../../../mips-linux-uclibc/lib/crti.o
 .pdr           0x0000000000000000       0x40 /data/xiaoning/RealTek/HN120/toolchain/msdk-4.4.7-mips-EL-3.10-u0.9.33-m32t-140827/bin/../lib/gcc/mips-linux-uclibc/4.4.7/../../../../mips-linux-uclibc/lib/crti.o
 .note.GNU-stack
                0x0000000000000000        0x0 /data/xiaoning/RealTek/HN120/toolchain/msdk-4.4.7-mips-EL-3.10-u0.9.33-m32t-140827/bin/../lib/gcc/mips-linux-uclibc/4.4.7/../../../../mips-linux-uclibc/lib/crti.o
 .data          0x0000000000000000        0x0 /data/xiaoning/RealTek/HN120/toolchain/msdk-4.4.7-mips-EL-3.10-u0.9.33-m32t-140827/bin/../lib/gcc/mips-linux-uclibc/4.4.7/soft-float/el/crtbegin.o
 .reginfo       0x0000000000000000       0x18 /data/xiaoning/RealTek/HN120/toolchain/msdk-4.4.7-mips-EL-3.10-u0.9.33-m32t-140827/bin/../lib/gcc/mips-linux-uclibc/4.4.7/soft-float/el/crtbegin.o
 .sdata         0x0000000000000000        0x4 /data/xiaoning/RealTek/HN120/toolchain/msdk-4.4.7-mips-EL-3.10-u0.9.33-m32t-140827/bin/../lib/gcc/mips-linux-uclibc/4.4.7/soft-float/el/crtbegin.o
 .reginfo       0x0000000000000000       0x18 applets/built-in.o
 .text          0x0000000000000000        0x0 applets/built-in.o
 .data          0x0000000000000000        0x0 applets/built-in.o
 .bss           0x0000000000000000        0x0 applets/built-in.o
 .text          0x0000000000000000        0x0 libbb/lib.a(appletlib.o)
 .data          0x0000000000000000        0x0 libbb/lib.a(appletlib.o)
 .bss           0x0000000000000000        0x0 libbb/lib.a(appletlib.o)
 .reginfo       0x0000000000000000       0x18 libbb/lib.a(appletlib.o)
 .pdr           0x0000000000000000      0x100 libbb/lib.a(appletlib.o)
 .text          0x0000000000000000        0x0 libbb/lib.a(bb_basename.o)
 .data          0x0000000000000000        0x0 libbb/lib.a(bb_basename.o)
 .bss           0x0000000000000000        0x0 libbb/lib.a(bb_basename.o)
 .reginfo       0x0000000000000000       0x18 libbb/lib.a(bb_basename.o)
 .pdr           0x0000000000000000       0x20 libbb/lib.a(bb_basename.o)
 .text          0x0000000000000000        0x0 libbb/lib.a(default_error_retval.o)
 .data          0x0000000000000000        0x0 libbb/lib.a(default_error_retval.o)
 .bss           0x0000000000000000        0x0 libbb/lib.a(default_error_retval.o)
 .reginfo       0x0000000000000000       0x18 libbb/lib.a(default_error_retval.o)
 .text          0x0000000000000000        0x0 libbb/lib.a(error_msg_and_die.o)
 .data          0x0000000000000000        0x0 libbb/lib.a(error_msg_and_die.o)
 .bss           0x0000000000000000        0x0 libbb/lib.a(error_msg_and_die.o)
 .reginfo       0x0000000000000000       0x18 libbb/lib.a(error_msg_and_die.o)
 .pdr           0x0000000000000000       0x20 libbb/lib.a(error_msg_and_die.o)
 .text          0x0000000000000000        0x0 libbb/lib.a(full_write.o)
 .data          0x0000000000000000        0x0 libbb/lib.a(full_write.o)
 .bss           0x0000000000000000        0x0 libbb/lib.a(full_write.o)
 .reginfo       0x0000000000000000       0x18 libbb/lib.a(full_write.o)
 .pdr           0x0000000000000000       0x20 libbb/lib.a(full_write.o)
 .text          0x0000000000000000        0x0 libbb/lib.a(get_last_path_component.o)
 .data          0x0000000000000000        0x0 libbb/lib.a(get_last_path_component.o)
 .bss           0x0000000000000000        0x0 libbb/lib.a(get_last_path_component.o)
 .reginfo       0x0000000000000000       0x18 libbb/lib.a(get_last_path_component.o)
 .pdr           0x0000000000000000       0x40 libbb/lib.a(get_last_path_component.o)
 .text          0x0000000000000000        0x0 libbb/lib.a(last_char_is.o)
 .data          0x0000000000000000        0x0 libbb/lib.a(last_char_is.o)
 .bss           0x0000000000000000        0x0 libbb/lib.a(last_char_is.o)
 .reginfo       0x0000000000000000       0x18 libbb/lib.a(last_char_is.o)
 .pdr           0x0000000000000000       0x20 libbb/lib.a(last_char_is.o)
 .text          0x0000000000000000        0x0 libbb/lib.a(messages.o)
 .data          0x0000000000000000        0x0 libbb/lib.a(messages.o)
 .bss           0x0000000000000000        0x0 libbb/lib.a(messages.o)
 .reginfo       0x0000000000000000       0x18 libbb/lib.a(messages.o)
 .rodata.bb_msg_unknown
                0x0000000000000000        0xa libbb/lib.a(messages.o)
 .rodata.bb_hexdigits_upcase
                0x0000000000000000       0x11 libbb/lib.a(messages.o)
 .rodata.bb_path_passwd_file
                0x0000000000000000        0xc libbb/lib.a(messages.o)
 .rodata.bb_path_shadow_file
                0x0000000000000000        0xc libbb/lib.a(messages.o)
 .rodata.bb_path_group_file
                0x0000000000000000        0xb libbb/lib.a(messages.o)
 .rodata.bb_path_gshadow_file
                0x0000000000000000        0xd libbb/lib.a(messages.o)
 .rodata.bb_path_wtmp_file
                0x0000000000000000        0xe libbb/lib.a(messages.o)
 .text          0x0000000000000000        0x0 libbb/lib.a(ptr_to_globals.o)
 .data          0x0000000000000000        0x0 libbb/lib.a(ptr_to_globals.o)
 .bss           0x0000000000000000        0x0 libbb/lib.a(ptr_to_globals.o)
 .reginfo       0x0000000000000000       0x18 libbb/lib.a(ptr_to_globals.o)
 .text          0x0000000000000000        0x0 libbb/lib.a(safe_write.o)
 .data          0x0000000000000000        0x0 libbb/lib.a(safe_write.o)
 .bss           0x0000000000000000        0x0 libbb/lib.a(safe_write.o)
 .reginfo       0x0000000000000000       0x18 libbb/lib.a(safe_write.o)
 .pdr           0x0000000000000000       0x20 libbb/lib.a(safe_write.o)
 .text          0x0000000000000000        0x0 libbb/lib.a(verror_msg.o)
 .data          0x0000000000000000        0x0 libbb/lib.a(verror_msg.o)
 .bss           0x0000000000000000        0x0 libbb/lib.a(verror_msg.o)
 .reginfo       0x0000000000000000       0x18 libbb/lib.a(verror_msg.o)
 .pdr           0x0000000000000000       0x20 libbb/lib.a(verror_msg.o)
 .text          0x0000000000000000        0x0 libbb/lib.a(xfunc_die.o)
 .data          0x0000000000000000        0x0 libbb/lib.a(xfunc_die.o)
 .bss           0x0000000000000000        0x0 libbb/lib.a(xfunc_die.o)
 .reginfo       0x0000000000000000       0x18 libbb/lib.a(xfunc_die.o)
 .pdr           0x0000000000000000       0x20 libbb/lib.a(xfunc_die.o)
 .text          0x0000000000000000        0x0 libbb/lib.a(xfuncs_printf.o)
 .data          0x0000000000000000        0x0 libbb/lib.a(xfuncs_printf.o)
 .bss           0x0000000000000000        0x0 libbb/lib.a(xfuncs_printf.o)
 .reginfo       0x0000000000000000       0x18 libbb/lib.a(xfuncs_printf.o)
 .pdr           0x0000000000000000      0x540 libbb/lib.a(xfuncs_printf.o)
 .text.ioctl_or_perror
                0x0000000000000000       0x64 libbb/lib.a(xfuncs_printf.o)
 .text.selinux_or_die
                0x0000000000000000       0x14 libbb/lib.a(xfuncs_printf.o)
 .text.xchroot  0x0000000000000000       0x30 libbb/lib.a(xfuncs_printf.o)
 .text.xfflush_stdout
                0x0000000000000000       0x30 libbb/lib.a(xfuncs_printf.o)
 .text.xprint_and_close_file
                0x0000000000000000       0x54 libbb/lib.a(xfuncs_printf.o)
 .text.xpipe    0x0000000000000000       0x2c libbb/lib.a(xfuncs_printf.o)
 .text.rename_or_warn
                0x0000000000000000       0x48 libbb/lib.a(xfuncs_printf.o)
 .text.xrename  0x0000000000000000       0x40 libbb/lib.a(xfuncs_printf.o)
 .text          0x0000000000000000        0x0 libbb/lib.a(copyfd.o)
 .data          0x0000000000000000        0x0 libbb/lib.a(copyfd.o)
 .bss           0x0000000000000000        0x0 libbb/lib.a(copyfd.o)
 .reginfo       0x0000000000000000       0x18 libbb/lib.a(copyfd.o)
 .pdr           0x0000000000000000       0x80 libbb/lib.a(copyfd.o)
 .rodata.str1.4
                0x0000000000000000        0xc libbb/lib.a(copyfd.o)
 .text.bb_copyfd_exact_size
                0x0000000000000000       0x44 libbb/lib.a(copyfd.o)
 .text          0x0000000000000000        0x0 libbb/lib.a(error_msg.o)
 .data          0x0000000000000000        0x0 libbb/lib.a(error_msg.o)
 .bss           0x0000000000000000        0x0 libbb/lib.a(error_msg.o)
 .reginfo       0x0000000000000000       0x18 libbb/lib.a(error_msg.o)
 .pdr           0x0000000000000000       0x20 libbb/lib.a(error_msg.o)
 .text          0x0000000000000000        0x0 libbb/lib.a(perror_msg.o)
 .data          0x0000000000000000        0x0 libbb/lib.a(perror_msg.o)
 .bss           0x0000000000000000        0x0 libbb/lib.a(perror_msg.o)
 .reginfo       0x0000000000000000       0x18 libbb/lib.a(perror_msg.o)
 .pdr           0x0000000000000000       0x40 libbb/lib.a(perror_msg.o)
 .text          0x0000000000000000        0x0 libbb/lib.a(perror_msg_and_die.o)
 .data          0x0000000000000000        0x0 libbb/lib.a(perror_msg_and_die.o)
 .bss           0x0000000000000000        0x0 libbb/lib.a(perror_msg_and_die.o)
 .reginfo       0x0000000000000000       0x18 libbb/lib.a(perror_msg_and_die.o)
 .pdr           0x0000000000000000       0x40 libbb/lib.a(perror_msg_and_die.o)
 .text          0x0000000000000000        0x0 libbb/lib.a(read.o)
 .data          0x0000000000000000        0x0 libbb/lib.a(read.o)
 .bss           0x0000000000000000        0x0 libbb/lib.a(read.o)
 .reginfo       0x0000000000000000       0x18 libbb/lib.a(read.o)
 .pdr           0x0000000000000000      0x1a0 libbb/lib.a(read.o)
 .text.xmalloc_open_read_close
                0x0000000000000000       0x58 libbb/lib.a(read.o)
 .text.xmalloc_xopen_read_close
                0x0000000000000000       0x38 libbb/lib.a(read.o)
 .text.xread_char
                0x0000000000000000       0x24 libbb/lib.a(read.o)
 .text.xmalloc_reads
                0x0000000000000000      0x150 libbb/lib.a(read.o)
 .text          0x0000000000000000        0x0 libbb/lib.a(safe_poll.o)
 .data          0x0000000000000000        0x0 libbb/lib.a(safe_poll.o)
 .bss           0x0000000000000000        0x0 libbb/lib.a(safe_poll.o)
 .reginfo       0x0000000000000000       0x18 libbb/lib.a(safe_poll.o)
 .pdr           0x0000000000000000       0x20 libbb/lib.a(safe_poll.o)
 .text          0x0000000000000000        0x0 loginutils/lib.a(login.o)
 .data          0x0000000000000000        0x0 loginutils/lib.a(login.o)
 .bss           0x0000000000000000        0x0 loginutils/lib.a(login.o)
 .reginfo       0x0000000000000000       0x18 loginutils/lib.a(login.o)
 .pdr           0x0000000000000000       0x40 loginutils/lib.a(login.o)
 .text          0x0000000000000000        0x0 modutils/lib.a(depmod.o)
 .data          0x0000000000000000        0x0 modutils/lib.a(depmod.o)
 .bss           0x0000000000000000        0x0 modutils/lib.a(depmod.o)
 .reginfo       0x0000000000000000       0x18 modutils/lib.a(depmod.o)
 .pdr           0x0000000000000000       0x80 modutils/lib.a(depmod.o)
 .text          0x0000000000000000        0x0 modutils/lib.a(insmod.o)
 .data          0x0000000000000000        0x0 modutils/lib.a(insmod.o)
 .bss           0x0000000000000000        0x0 modutils/lib.a(insmod.o)
 .reginfo       0x0000000000000000       0x18 modutils/lib.a(insmod.o)
 .pdr           0x0000000000000000       0x20 modutils/lib.a(insmod.o)
 .text          0x0000000000000000        0x0 modutils/lib.a(lsmod.o)
 .data          0x0000000000000000        0x0 modutils/lib.a(lsmod.o)
 .bss           0x0000000000000000        0x0 modutils/lib.a(lsmod.o)
 .reginfo       0x0000000000000000       0x18 modutils/lib.a(lsmod.o)
 .pdr           0x0000000000000000       0x20 modutils/lib.a(lsmod.o)
 .text          0x0000000000000000        0x0 modutils/lib.a(modprobe.o)
 .data          0x0000000000000000        0x0 modutils/lib.a(modprobe.o)
 .bss           0x0000000000000000        0x0 modutils/lib.a(modprobe.o)
 .reginfo       0x0000000000000000       0x18 modutils/lib.a(modprobe.o)
 .pdr           0x0000000000000000       0xa0 modutils/lib.a(modprobe.o)
 .text          0x0000000000000000        0x0 modutils/lib.a(modutils.o)
 .data          0x0000000000000000        0x0 modutils/lib.a(modutils.o)
 .bss           0x0000000000000000        0x0 modutils/lib.a(modutils.o)
 .reginfo       0x0000000000000000       0x18 modutils/lib.a(modutils.o)
 .pdr           0x0000000000000000      0x120 modutils/lib.a(modutils.o)
 .text.replace  0x0000000000000000       0x2c modutils/lib.a(modutils.o)
 .text.replace_underscores
                0x0000000000000000       0x28 modutils/lib.a(modutils.o)
 .text          0x0000000000000000        0x0 modutils/lib.a(rmmod.o)
 .data          0x0000000000000000        0x0 modutils/lib.a(rmmod.o)
 .bss           0x0000000000000000        0x0 modutils/lib.a(rmmod.o)
 .reginfo       0x0000000000000000       0x18 modutils/lib.a(rmmod.o)
 .pdr           0x0000000000000000       0x20 modutils/lib.a(rmmod.o)
 .text          0x0000000000000000        0x0 networking/lib.a(hostname.o)
 .data          0x0000000000000000        0x0 networking/lib.a(hostname.o)
 .bss           0x0000000000000000        0x0 networking/lib.a(hostname.o)
 .reginfo       0x0000000000000000       0x18 networking/lib.a(hostname.o)
 .pdr           0x0000000000000000       0x40 networking/lib.a(hostname.o)
 .text          0x0000000000000000        0x0 networking/lib.a(ifconfig.o)
 .data          0x0000000000000000        0x0 networking/lib.a(ifconfig.o)
 .bss           0x0000000000000000        0x0 networking/lib.a(ifconfig.o)
 .reginfo       0x0000000000000000       0x18 networking/lib.a(ifconfig.o)
 .pdr           0x0000000000000000       0x20 networking/lib.a(ifconfig.o)
 .text          0x0000000000000000        0x0 networking/lib.a(interface.o)
 .data          0x0000000000000000        0x0 networking/lib.a(interface.o)
 .bss           0x0000000000000000        0x0 networking/lib.a(interface.o)
 .reginfo       0x0000000000000000       0x18 networking/lib.a(interface.o)
 .pdr           0x0000000000000000      0x280 networking/lib.a(interface.o)
 .text.get_hwtype
                0x0000000000000000       0x5c networking/lib.a(interface.o)
 .text.get_aftype
                0x0000000000000000       0x5c networking/lib.a(interface.o)
 .text          0x0000000000000000        0x0 networking/lib.a(ip.o)
 .data          0x0000000000000000        0x0 networking/lib.a(ip.o)
 .bss           0x0000000000000000        0x0 networking/lib.a(ip.o)
 .reginfo       0x0000000000000000       0x18 networking/lib.a(ip.o)
 .pdr           0x0000000000000000       0x60 networking/lib.a(ip.o)
 .text.iptunnel_main
                0x0000000000000000       0x20 networking/lib.a(ip.o)
 .text          0x0000000000000000        0x0 networking/lib.a(ping.o)
 .data          0x0000000000000000        0x0 networking/lib.a(ping.o)
 .bss           0x0000000000000000        0x0 networking/lib.a(ping.o)
 .reginfo       0x0000000000000000       0x18 networking/lib.a(ping.o)
 .pdr           0x0000000000000000      0x120 networking/lib.a(ping.o)
 .text          0x0000000000000000        0x0 networking/lib.a(route.o)
 .data          0x0000000000000000        0x0 networking/lib.a(route.o)
 .bss           0x0000000000000000        0x0 networking/lib.a(route.o)
 .reginfo       0x0000000000000000       0x18 networking/lib.a(route.o)
 .pdr           0x0000000000000000       0xa0 networking/lib.a(route.o)
 .text          0x0000000000000000        0x0 networking/lib.a(telnetd.o)
 .data          0x0000000000000000        0x0 networking/lib.a(telnetd.o)
 .bss           0x0000000000000000        0x0 networking/lib.a(telnetd.o)
 .reginfo       0x0000000000000000       0x18 networking/lib.a(telnetd.o)
 .pdr           0x0000000000000000       0x80 networking/lib.a(telnetd.o)
 .text          0x0000000000000000        0x0 networking/lib.a(tftp.o)
 .data          0x0000000000000000        0x0 networking/lib.a(tftp.o)
 .bss           0x0000000000000000        0x0 networking/lib.a(tftp.o)
 .reginfo       0x0000000000000000       0x18 networking/lib.a(tftp.o)
 .pdr           0x0000000000000000       0x20 networking/lib.a(tftp.o)
 .text          0x0000000000000000        0x0 networking/lib.a(traceroute.o)
 .data          0x0000000000000000        0x0 networking/lib.a(traceroute.o)
 .bss           0x0000000000000000        0x0 networking/lib.a(traceroute.o)
 .reginfo       0x0000000000000000       0x18 networking/lib.a(traceroute.o)
 .pdr           0x0000000000000000       0xe0 networking/lib.a(traceroute.o)
 .text          0x0000000000000000        0x0 networking/lib.a(vconfig.o)
 .data          0x0000000000000000        0x0 networking/lib.a(vconfig.o)
 .bss           0x0000000000000000        0x0 networking/lib.a(vconfig.o)
 .reginfo       0x0000000000000000       0x18 networking/lib.a(vconfig.o)
 .pdr           0x0000000000000000       0x80 networking/lib.a(vconfig.o)
 .text          0x0000000000000000        0x0 networking/libiproute/lib.a(ip_parse_common_args.o)
 .data          0x0000000000000000        0x0 networking/libiproute/lib.a(ip_parse_common_args.o)
 .bss           0x0000000000000000        0x0 networking/libiproute/lib.a(ip_parse_common_args.o)
 .reginfo       0x0000000000000000       0x18 networking/libiproute/lib.a(ip_parse_common_args.o)
 .pdr           0x0000000000000000       0x20 networking/libiproute/lib.a(ip_parse_common_args.o)
 .text          0x0000000000000000        0x0 networking/libiproute/lib.a(iptunnel.o)
 .data          0x0000000000000000        0x0 networking/libiproute/lib.a(iptunnel.o)
 .bss           0x0000000000000000        0x0 networking/libiproute/lib.a(iptunnel.o)
 .reginfo       0x0000000000000000       0x18 networking/libiproute/lib.a(iptunnel.o)
 .pdr           0x0000000000000000      0x100 networking/libiproute/lib.a(iptunnel.o)
 .text          0x0000000000000000        0x0 networking/libiproute/lib.a(rt_names.o)
 .data          0x0000000000000000        0x0 networking/libiproute/lib.a(rt_names.o)
 .bss           0x0000000000000000        0x0 networking/libiproute/lib.a(rt_names.o)
 .reginfo       0x0000000000000000       0x18 networking/libiproute/lib.a(rt_names.o)
 .pdr           0x0000000000000000      0x160 networking/libiproute/lib.a(rt_names.o)
 .text.rtnl_rtrealm_a2n
                0x0000000000000000      0x148 networking/libiproute/lib.a(rt_names.o)
 .text.rtnl_rtscope_initialize
                0x0000000000000000       0x8c networking/libiproute/lib.a(rt_names.o)
 .text.rtnl_rtscope_a2n
                0x0000000000000000      0x114 networking/libiproute/lib.a(rt_names.o)
 .text.rtnl_rtscope_n2a
                0x0000000000000000       0x70 networking/libiproute/lib.a(rt_names.o)
 .text.rtnl_rtprot_initialize
                0x0000000000000000       0x64 networking/libiproute/lib.a(rt_names.o)
 .text.rtnl_rtprot_a2n
                0x0000000000000000      0x114 networking/libiproute/lib.a(rt_names.o)
 .text.rtnl_rtprot_n2a
                0x0000000000000000       0x70 networking/libiproute/lib.a(rt_names.o)
 .bss.res.6553  0x0000000000000000        0x4 networking/libiproute/lib.a(rt_names.o)
 .bss.cache.6552
                0x0000000000000000        0x4 networking/libiproute/lib.a(rt_names.o)
 .bss.res.6509  0x0000000000000000        0x4 networking/libiproute/lib.a(rt_names.o)
 .bss.cache.6508
                0x0000000000000000        0x4 networking/libiproute/lib.a(rt_names.o)
 .bss.res.6445  0x0000000000000000        0x4 networking/libiproute/lib.a(rt_names.o)
 .bss.cache.6444
                0x0000000000000000        0x4 networking/libiproute/lib.a(rt_names.o)
 .rodata.init_tab.6418
                0x0000000000000000       0x34 networking/libiproute/lib.a(rt_names.o)
 .bss.rtnl_rtprot_tab
                0x0000000000000000        0x4 networking/libiproute/lib.a(rt_names.o)
 .bss.rtnl_rtscope_tab
                0x0000000000000000        0x4 networking/libiproute/lib.a(rt_names.o)
 .bss.rtnl_rtrealm_tab
                0x0000000000000000        0x4 networking/libiproute/lib.a(rt_names.o)
 .text          0x0000000000000000        0x0 networking/libiproute/lib.a(utils.o)
 .data          0x0000000000000000        0x0 networking/libiproute/lib.a(utils.o)
 .bss           0x0000000000000000        0x0 networking/libiproute/lib.a(utils.o)
 .reginfo       0x0000000000000000       0x18 networking/libiproute/lib.a(utils.o)
 .pdr           0x0000000000000000      0x260 networking/libiproute/lib.a(utils.o)
 .text.inet_addr_match
                0x0000000000000000       0xa0 networking/libiproute/lib.a(utils.o)
 .text.duparg   0x0000000000000000       0x20 networking/libiproute/lib.a(utils.o)
 .text.get_addr
                0x0000000000000000       0x60 networking/libiproute/lib.a(utils.o)
 .text.get_s8   0x0000000000000000       0x84 networking/libiproute/lib.a(utils.o)
 .text.get_s16  0x0000000000000000       0x88 networking/libiproute/lib.a(utils.o)
 .text.get_integer
                0x0000000000000000       0x74 networking/libiproute/lib.a(utils.o)
 .text.get_u8   0x0000000000000000       0x7c networking/libiproute/lib.a(utils.o)
 .text.get_u16  0x0000000000000000       0x80 networking/libiproute/lib.a(utils.o)
 .text.get_u32  0x0000000000000000       0x74 networking/libiproute/lib.a(utils.o)
 .text.get_prefix_1
                0x0000000000000000      0x1a8 networking/libiproute/lib.a(utils.o)
 .text.get_prefix
                0x0000000000000000       0x60 networking/libiproute/lib.a(utils.o)
 .text          0x0000000000000000        0x0 procps/lib.a(free.o)
 .data          0x0000000000000000        0x0 procps/lib.a(free.o)
 .bss           0x0000000000000000        0x0 procps/lib.a(free.o)
 .reginfo       0x0000000000000000       0x18 procps/lib.a(free.o)
 .pdr           0x0000000000000000       0x20 procps/lib.a(free.o)
 .text          0x0000000000000000        0x0 procps/lib.a(kill.o)
 .data          0x0000000000000000        0x0 procps/lib.a(kill.o)
 .bss           0x0000000000000000        0x0 procps/lib.a(kill.o)
 .reginfo       0x0000000000000000       0x18 procps/lib.a(kill.o)
 .pdr           0x0000000000000000       0x20 procps/lib.a(kill.o)
 .text          0x0000000000000000        0x0 procps/lib.a(ps.o)
 .data          0x0000000000000000        0x0 procps/lib.a(ps.o)
 .bss           0x0000000000000000        0x0 procps/lib.a(ps.o)
 .reginfo       0x0000000000000000       0x18 procps/lib.a(ps.o)
 .pdr           0x0000000000000000       0x20 procps/lib.a(ps.o)
 .text          0x0000000000000000        0x0 procps/lib.a(renice.o)
 .data          0x0000000000000000        0x0 procps/lib.a(renice.o)
 .bss           0x0000000000000000        0x0 procps/lib.a(renice.o)
 .reginfo       0x0000000000000000       0x18 procps/lib.a(renice.o)
 .pdr           0x0000000000000000       0x20 procps/lib.a(renice.o)
 .text          0x0000000000000000        0x0 procps/lib.a(top.o)
 .data          0x0000000000000000        0x0 procps/lib.a(top.o)
 .bss           0x0000000000000000        0x0 procps/lib.a(top.o)
 .reginfo       0x0000000000000000       0x18 procps/lib.a(top.o)
 .pdr           0x0000000000000000      0x240 procps/lib.a(top.o)
 .text          0x0000000000000000        0x0 procps/lib.a(uptime.o)
 .data          0x0000000000000000        0x0 procps/lib.a(uptime.o)
 .bss           0x0000000000000000        0x0 procps/lib.a(uptime.o)
 .reginfo       0x0000000000000000       0x18 procps/lib.a(uptime.o)
 .pdr           0x0000000000000000       0x20 procps/lib.a(uptime.o)
 .text          0x0000000000000000        0x0 shell/lib.a(ash.o)
 .data          0x0000000000000000        0x0 shell/lib.a(ash.o)
 .bss           0x0000000000000000        0x0 shell/lib.a(ash.o)
 .reginfo       0x0000000000000000       0x18 shell/lib.a(ash.o)
 .pdr           0x0000000000000000     0x19e0 shell/lib.a(ash.o)
 .text          0x0000000000000000        0x0 shell/lib.a(ash_ptr_hack.o)
 .data          0x0000000000000000        0x0 shell/lib.a(ash_ptr_hack.o)
 .bss           0x0000000000000000        0x0 shell/lib.a(ash_ptr_hack.o)
 .reginfo       0x0000000000000000       0x18 shell/lib.a(ash_ptr_hack.o)
 .text          0x0000000000000000        0x0 sysklogd/lib.a(klogd.o)
 .data          0x0000000000000000        0x0 sysklogd/lib.a(klogd.o)
 .bss           0x0000000000000000        0x0 sysklogd/lib.a(klogd.o)
 .reginfo       0x0000000000000000       0x18 sysklogd/lib.a(klogd.o)
 .pdr           0x0000000000000000       0x40 sysklogd/lib.a(klogd.o)
 .text          0x0000000000000000        0x0 sysklogd/lib.a(syslogd_and_logger.o)
 .data          0x0000000000000000        0x0 sysklogd/lib.a(syslogd_and_logger.o)
 .bss           0x0000000000000000        0x0 sysklogd/lib.a(syslogd_and_logger.o)
 .reginfo       0x0000000000000000       0x18 sysklogd/lib.a(syslogd_and_logger.o)
 .pdr           0x0000000000000000       0xc0 sysklogd/lib.a(syslogd_and_logger.o)
 .text          0x0000000000000000        0x0 util-linux/lib.a(mount.o)
 .data          0x0000000000000000        0x0 util-linux/lib.a(mount.o)
 .bss           0x0000000000000000        0x0 util-linux/lib.a(mount.o)
 .reginfo       0x0000000000000000       0x18 util-linux/lib.a(mount.o)
 .pdr           0x0000000000000000       0xa0 util-linux/lib.a(mount.o)
 .text          0x0000000000000000        0x0 util-linux/lib.a(umount.o)
 .data          0x0000000000000000        0x0 util-linux/lib.a(umount.o)
 .bss           0x0000000000000000        0x0 util-linux/lib.a(umount.o)
 .reginfo       0x0000000000000000       0x18 util-linux/lib.a(umount.o)
 .pdr           0x0000000000000000       0x20 util-linux/lib.a(umount.o)
 .text          0x0000000000000000        0x0 archival/lib.a(bbunzip.o)
 .data          0x0000000000000000        0x0 archival/lib.a(bbunzip.o)
 .bss           0x0000000000000000        0x0 archival/lib.a(bbunzip.o)
 .reginfo       0x0000000000000000       0x18 archival/lib.a(bbunzip.o)
 .pdr           0x0000000000000000       0xa0 archival/lib.a(bbunzip.o)
 .text          0x0000000000000000        0x0 archival/libunarchive/lib.a(decompress_bunzip2.o)
 .data          0x0000000000000000        0x0 archival/libunarchive/lib.a(decompress_bunzip2.o)
 .bss           0x0000000000000000        0x0 archival/libunarchive/lib.a(decompress_bunzip2.o)
 .reginfo       0x0000000000000000       0x18 archival/libunarchive/lib.a(decompress_bunzip2.o)
 .pdr           0x0000000000000000       0xe0 archival/libunarchive/lib.a(decompress_bunzip2.o)
 .text          0x0000000000000000        0x0 coreutils/lib.a(cat.o)
 .data          0x0000000000000000        0x0 coreutils/lib.a(cat.o)
 .bss           0x0000000000000000        0x0 coreutils/lib.a(cat.o)
 .reginfo       0x0000000000000000       0x18 coreutils/lib.a(cat.o)
 .pdr           0x0000000000000000       0x40 coreutils/lib.a(cat.o)
 .text          0x0000000000000000        0x0 coreutils/lib.a(chmod.o)
 .data          0x0000000000000000        0x0 coreutils/lib.a(chmod.o)
 .bss           0x0000000000000000        0x0 coreutils/lib.a(chmod.o)
 .reginfo       0x0000000000000000       0x18 coreutils/lib.a(chmod.o)
 .pdr           0x0000000000000000       0x40 coreutils/lib.a(chmod.o)
 .text          0x0000000000000000        0x0 coreutils/lib.a(cp.o)
 .data          0x0000000000000000        0x0 coreutils/lib.a(cp.o)
 .bss           0x0000000000000000        0x0 coreutils/lib.a(cp.o)
 .reginfo       0x0000000000000000       0x18 coreutils/lib.a(cp.o)
 .pdr           0x0000000000000000       0x20 coreutils/lib.a(cp.o)
 .text          0x0000000000000000        0x0 coreutils/lib.a(cut.o)
 .data          0x0000000000000000        0x0 coreutils/lib.a(cut.o)
 .bss           0x0000000000000000        0x0 coreutils/lib.a(cut.o)
 .reginfo       0x0000000000000000       0x18 coreutils/lib.a(cut.o)
 .pdr           0x0000000000000000       0x40 coreutils/lib.a(cut.o)
 .text          0x0000000000000000        0x0 coreutils/lib.a(date.o)
 .data          0x0000000000000000        0x0 coreutils/lib.a(date.o)
 .bss           0x0000000000000000        0x0 coreutils/lib.a(date.o)
 .reginfo       0x0000000000000000       0x18 coreutils/lib.a(date.o)
 .pdr           0x0000000000000000       0x40 coreutils/lib.a(date.o)
 .text          0x0000000000000000        0x0 coreutils/lib.a(echo.o)
 .data          0x0000000000000000        0x0 coreutils/lib.a(echo.o)
 .bss           0x0000000000000000        0x0 coreutils/lib.a(echo.o)
 .reginfo       0x0000000000000000       0x18 coreutils/lib.a(echo.o)
 .pdr           0x0000000000000000       0x20 coreutils/lib.a(echo.o)
 .text          0x0000000000000000        0x0 coreutils/lib.a(expr.o)
 .data          0x0000000000000000        0x0 coreutils/lib.a(expr.o)
 .bss           0x0000000000000000        0x0 coreutils/lib.a(expr.o)
 .reginfo       0x0000000000000000       0x18 coreutils/lib.a(expr.o)
 .pdr           0x0000000000000000      0x220 coreutils/lib.a(expr.o)
 .text          0x0000000000000000        0x0 coreutils/lib.a(false.o)
 .data          0x0000000000000000        0x0 coreutils/lib.a(false.o)
 .bss           0x0000000000000000        0x0 coreutils/lib.a(false.o)
 .reginfo       0x0000000000000000       0x18 coreutils/lib.a(false.o)
 .pdr           0x0000000000000000       0x20 coreutils/lib.a(false.o)
 .text          0x0000000000000000        0x0 coreutils/lib.a(head.o)
 .data          0x0000000000000000        0x0 coreutils/lib.a(head.o)
 .bss           0x0000000000000000        0x0 coreutils/lib.a(head.o)
 .reginfo       0x0000000000000000       0x18 coreutils/lib.a(head.o)
 .pdr           0x0000000000000000       0x20 coreutils/lib.a(head.o)
 .text          0x0000000000000000        0x0 coreutils/lib.a(ln.o)
 .data          0x0000000000000000        0x0 coreutils/lib.a(ln.o)
 .bss           0x0000000000000000        0x0 coreutils/lib.a(ln.o)
 .reginfo       0x0000000000000000       0x18 coreutils/lib.a(ln.o)
 .pdr           0x0000000000000000       0x20 coreutils/lib.a(ln.o)
 .text          0x0000000000000000        0x0 coreutils/lib.a(ls.o)
 .data          0x0000000000000000        0x0 coreutils/lib.a(ls.o)
 .bss           0x0000000000000000        0x0 coreutils/lib.a(ls.o)
 .reginfo       0x0000000000000000       0x18 coreutils/lib.a(ls.o)
 .pdr           0x0000000000000000      0x140 coreutils/lib.a(ls.o)
 .text          0x0000000000000000        0x0 coreutils/lib.a(mkdir.o)
 .data          0x0000000000000000        0x0 coreutils/lib.a(mkdir.o)
 .bss           0x0000000000000000        0x0 coreutils/lib.a(mkdir.o)
 .reginfo       0x0000000000000000       0x18 coreutils/lib.a(mkdir.o)
 .pdr           0x0000000000000000       0x20 coreutils/lib.a(mkdir.o)
 .text          0x0000000000000000        0x0 coreutils/lib.a(printf.o)
 .data          0x0000000000000000        0x0 coreutils/lib.a(printf.o)
 .bss           0x0000000000000000        0x0 coreutils/lib.a(printf.o)
 .reginfo       0x0000000000000000       0x18 coreutils/lib.a(printf.o)
 .pdr           0x0000000000000000       0xe0 coreutils/lib.a(printf.o)
 .text          0x0000000000000000        0x0 coreutils/lib.a(rm.o)
 .data          0x0000000000000000        0x0 coreutils/lib.a(rm.o)
 .bss           0x0000000000000000        0x0 coreutils/lib.a(rm.o)
 .reginfo       0x0000000000000000       0x18 coreutils/lib.a(rm.o)
 .pdr           0x0000000000000000       0x20 coreutils/lib.a(rm.o)
 .text          0x0000000000000000        0x0 coreutils/lib.a(sleep.o)
 .data          0x0000000000000000        0x0 coreutils/lib.a(sleep.o)
 .bss           0x0000000000000000        0x0 coreutils/lib.a(sleep.o)
 .reginfo       0x0000000000000000       0x18 coreutils/lib.a(sleep.o)
 .pdr           0x0000000000000000       0x20 coreutils/lib.a(sleep.o)
 .text          0x0000000000000000        0x0 coreutils/lib.a(tail.o)
 .data          0x0000000000000000        0x0 coreutils/lib.a(tail.o)
 .bss           0x0000000000000000        0x0 coreutils/lib.a(tail.o)
 .reginfo       0x0000000000000000       0x18 coreutils/lib.a(tail.o)
 .pdr           0x0000000000000000       0x80 coreutils/lib.a(tail.o)
 .text          0x0000000000000000        0x0 coreutils/lib.a(test.o)
 .data          0x0000000000000000        0x0 coreutils/lib.a(test.o)
 .bss           0x0000000000000000        0x0 coreutils/lib.a(test.o)
 .reginfo       0x0000000000000000       0x18 coreutils/lib.a(test.o)
 .pdr           0x0000000000000000      0x120 coreutils/lib.a(test.o)
 .text          0x0000000000000000        0x0 coreutils/lib.a(test_ptr_hack.o)
 .data          0x0000000000000000        0x0 coreutils/lib.a(test_ptr_hack.o)
 .bss           0x0000000000000000        0x0 coreutils/lib.a(test_ptr_hack.o)
 .reginfo       0x0000000000000000       0x18 coreutils/lib.a(test_ptr_hack.o)
 .text          0x0000000000000000        0x0 coreutils/lib.a(true.o)
 .data          0x0000000000000000        0x0 coreutils/lib.a(true.o)
 .bss           0x0000000000000000        0x0 coreutils/lib.a(true.o)
 .reginfo       0x0000000000000000       0x18 coreutils/lib.a(true.o)
 .pdr           0x0000000000000000       0x20 coreutils/lib.a(true.o)
 .text          0x0000000000000000        0x0 coreutils/lib.a(wc.o)
 .data          0x0000000000000000        0x0 coreutils/lib.a(wc.o)
 .bss           0x0000000000000000        0x0 coreutils/lib.a(wc.o)
 .reginfo       0x0000000000000000       0x18 coreutils/lib.a(wc.o)
 .pdr           0x0000000000000000       0x20 coreutils/lib.a(wc.o)
 .text          0x0000000000000000        0x0 coreutils/libcoreutils/lib.a(cp_mv_stat.o)
 .data          0x0000000000000000        0x0 coreutils/libcoreutils/lib.a(cp_mv_stat.o)
 .bss           0x0000000000000000        0x0 coreutils/libcoreutils/lib.a(cp_mv_stat.o)
 .reginfo       0x0000000000000000       0x18 coreutils/libcoreutils/lib.a(cp_mv_stat.o)
 .pdr           0x0000000000000000       0x40 coreutils/libcoreutils/lib.a(cp_mv_stat.o)
 .text          0x0000000000000000        0x0 editors/lib.a(awk.o)
 .data          0x0000000000000000        0x0 editors/lib.a(awk.o)
 .bss           0x0000000000000000        0x0 editors/lib.a(awk.o)
 .reginfo       0x0000000000000000       0x18 editors/lib.a(awk.o)
 .pdr           0x0000000000000000      0x720 editors/lib.a(awk.o)
 .text          0x0000000000000000        0x0 findutils/lib.a(grep.o)
 .data          0x0000000000000000        0x0 findutils/lib.a(grep.o)
 .bss           0x0000000000000000        0x0 findutils/lib.a(grep.o)
 .reginfo       0x0000000000000000       0x18 findutils/lib.a(grep.o)
 .pdr           0x0000000000000000       0xa0 findutils/lib.a(grep.o)
 .text          0x0000000000000000        0x0 init/lib.a(halt.o)
 .data          0x0000000000000000        0x0 init/lib.a(halt.o)
 .bss           0x0000000000000000        0x0 init/lib.a(halt.o)
 .reginfo       0x0000000000000000       0x18 init/lib.a(halt.o)
 .pdr           0x0000000000000000       0x20 init/lib.a(halt.o)
 .text          0x0000000000000000        0x0 init/lib.a(init.o)
 .data          0x0000000000000000        0x0 init/lib.a(init.o)
 .bss           0x0000000000000000        0x0 init/lib.a(init.o)
 .reginfo       0x0000000000000000       0x18 init/lib.a(init.o)
 .pdr           0x0000000000000000      0x260 init/lib.a(init.o)
 .text          0x0000000000000000        0x0 libbb/lib.a(bb_do_delay.o)
 .data          0x0000000000000000        0x0 libbb/lib.a(bb_do_delay.o)
 .bss           0x0000000000000000        0x0 libbb/lib.a(bb_do_delay.o)
 .reginfo       0x0000000000000000       0x18 libbb/lib.a(bb_do_delay.o)
 .pdr           0x0000000000000000       0x20 libbb/lib.a(bb_do_delay.o)
 .text          0x0000000000000000        0x0 libbb/lib.a(bb_strtonum.o)
 .data          0x0000000000000000        0x0 libbb/lib.a(bb_strtonum.o)
 .bss           0x0000000000000000        0x0 libbb/lib.a(bb_strtonum.o)
 .reginfo       0x0000000000000000       0x18 libbb/lib.a(bb_strtonum.o)
 .pdr           0x0000000000000000       0xc0 libbb/lib.a(bb_strtonum.o)
 .text.bb_strtoll
                0x0000000000000000       0x88 libbb/lib.a(bb_strtonum.o)
 .text.bb_strtoull
                0x0000000000000000       0x7c libbb/lib.a(bb_strtonum.o)
 .text          0x0000000000000000        0x0 libbb/lib.a(change_identity.o)
 .data          0x0000000000000000        0x0 libbb/lib.a(change_identity.o)
 .bss           0x0000000000000000        0x0 libbb/lib.a(change_identity.o)
 .reginfo       0x0000000000000000       0x18 libbb/lib.a(change_identity.o)
 .pdr           0x0000000000000000       0x20 libbb/lib.a(change_identity.o)
 .text          0x0000000000000000        0x0 libbb/lib.a(compare_string_array.o)
 .data          0x0000000000000000        0x0 libbb/lib.a(compare_string_array.o)
 .bss           0x0000000000000000        0x0 libbb/lib.a(compare_string_array.o)
 .reginfo       0x0000000000000000       0x18 libbb/lib.a(compare_string_array.o)
 .pdr           0x0000000000000000       0x80 libbb/lib.a(compare_string_array.o)
 .text.index_in_str_array
                0x0000000000000000       0x64 libbb/lib.a(compare_string_array.o)
 .text          0x0000000000000000        0x0 libbb/lib.a(concat_path_file.o)
 .data          0x0000000000000000        0x0 libbb/lib.a(concat_path_file.o)
 .bss           0x0000000000000000        0x0 libbb/lib.a(concat_path_file.o)
 .reginfo       0x0000000000000000       0x18 libbb/lib.a(concat_path_file.o)
 .pdr           0x0000000000000000       0x20 libbb/lib.a(concat_path_file.o)
 .text          0x0000000000000000        0x0 libbb/lib.a(copy_file.o)
 .data          0x0000000000000000        0x0 libbb/lib.a(copy_file.o)
 .bss           0x0000000000000000        0x0 libbb/lib.a(copy_file.o)
 .reginfo       0x0000000000000000       0x18 libbb/lib.a(copy_file.o)
 .pdr           0x0000000000000000       0x40 libbb/lib.a(copy_file.o)
 .text          0x0000000000000000        0x0 libbb/lib.a(correct_password.o)
 .data          0x0000000000000000        0x0 libbb/lib.a(correct_password.o)
 .bss           0x0000000000000000        0x0 libbb/lib.a(correct_password.o)
 .reginfo       0x0000000000000000       0x18 libbb/lib.a(correct_password.o)
 .pdr           0x0000000000000000       0x20 libbb/lib.a(correct_password.o)
 .text          0x0000000000000000        0x0 libbb/lib.a(crc32.o)
 .data          0x0000000000000000        0x0 libbb/lib.a(crc32.o)
 .bss           0x0000000000000000        0x0 libbb/lib.a(crc32.o)
 .reginfo       0x0000000000000000       0x18 libbb/lib.a(crc32.o)
 .pdr           0x0000000000000000       0x20 libbb/lib.a(crc32.o)
 .text          0x0000000000000000        0x0 libbb/lib.a(create_icmp6_socket.o)
 .data          0x0000000000000000        0x0 libbb/lib.a(create_icmp6_socket.o)
 .bss           0x0000000000000000        0x0 libbb/lib.a(create_icmp6_socket.o)
 .reginfo       0x0000000000000000       0x18 libbb/lib.a(create_icmp6_socket.o)
 .pdr           0x0000000000000000       0x20 libbb/lib.a(create_icmp6_socket.o)
 .text          0x0000000000000000        0x0 libbb/lib.a(create_icmp_socket.o)
 .data          0x0000000000000000        0x0 libbb/lib.a(create_icmp_socket.o)
 .bss           0x0000000000000000        0x0 libbb/lib.a(create_icmp_socket.o)
 .reginfo       0x0000000000000000       0x18 libbb/lib.a(create_icmp_socket.o)
 .pdr           0x0000000000000000       0x20 libbb/lib.a(create_icmp_socket.o)
 .text          0x0000000000000000        0x0 libbb/lib.a(device_open.o)
 .data          0x0000000000000000        0x0 libbb/lib.a(device_open.o)
 .bss           0x0000000000000000        0x0 libbb/lib.a(device_open.o)
 .reginfo       0x0000000000000000       0x18 libbb/lib.a(device_open.o)
 .pdr           0x0000000000000000       0x20 libbb/lib.a(device_open.o)
 .text          0x0000000000000000        0x0 libbb/lib.a(execable.o)
 .data          0x0000000000000000        0x0 libbb/lib.a(execable.o)
 .bss           0x0000000000000000        0x0 libbb/lib.a(execable.o)
 .reginfo       0x0000000000000000       0x18 libbb/lib.a(execable.o)
 .pdr           0x0000000000000000       0x80 libbb/lib.a(execable.o)
 .text.execable_file
                0x0000000000000000       0x54 libbb/lib.a(execable.o)
 .text.find_execable
                0x0000000000000000       0xa8 libbb/lib.a(execable.o)
 .rodata.str1.4
                0x0000000000000000        0x8 libbb/lib.a(execable.o)
 .text.exists_execable
                0x0000000000000000       0x70 libbb/lib.a(execable.o)
 .text          0x0000000000000000        0x0 libbb/lib.a(fclose_nonstdin.o)
 .data          0x0000000000000000        0x0 libbb/lib.a(fclose_nonstdin.o)
 .bss           0x0000000000000000        0x0 libbb/lib.a(fclose_nonstdin.o)
 .reginfo       0x0000000000000000       0x18 libbb/lib.a(fclose_nonstdin.o)
 .pdr           0x0000000000000000       0x20 libbb/lib.a(fclose_nonstdin.o)
 .text          0x0000000000000000        0x0 libbb/lib.a(fflush_stdout_and_exit.o)
 .data          0x0000000000000000        0x0 libbb/lib.a(fflush_stdout_and_exit.o)
 .bss           0x0000000000000000        0x0 libbb/lib.a(fflush_stdout_and_exit.o)
 .reginfo       0x0000000000000000       0x18 libbb/lib.a(fflush_stdout_and_exit.o)
 .pdr           0x0000000000000000       0x20 libbb/lib.a(fflush_stdout_and_exit.o)
 .text          0x0000000000000000        0x0 libbb/lib.a(find_pid_by_name.o)
 .data          0x0000000000000000        0x0 libbb/lib.a(find_pid_by_name.o)
 .bss           0x0000000000000000        0x0 libbb/lib.a(find_pid_by_name.o)
 .reginfo       0x0000000000000000       0x18 libbb/lib.a(find_pid_by_name.o)
 .pdr           0x0000000000000000       0x40 libbb/lib.a(find_pid_by_name.o)
 .text.pidlist_reverse
                0x0000000000000000       0x64 libbb/lib.a(find_pid_by_name.o)
 .text          0x0000000000000000        0x0 libbb/lib.a(get_line_from_file.o)
 .data          0x0000000000000000        0x0 libbb/lib.a(get_line_from_file.o)
 .bss           0x0000000000000000        0x0 libbb/lib.a(get_line_from_file.o)
 .reginfo       0x0000000000000000       0x18 libbb/lib.a(get_line_from_file.o)
 .pdr           0x0000000000000000       0x80 libbb/lib.a(get_line_from_file.o)
 .text.xmalloc_fgets
                0x0000000000000000       0x1c libbb/lib.a(get_line_from_file.o)
 .text          0x0000000000000000        0x0 libbb/lib.a(getopt32.o)
 .data          0x0000000000000000        0x0 libbb/lib.a(getopt32.o)
 .bss           0x0000000000000000        0x0 libbb/lib.a(getopt32.o)
 .reginfo       0x0000000000000000       0x18 libbb/lib.a(getopt32.o)
 .pdr           0x0000000000000000       0x20 libbb/lib.a(getopt32.o)
 .text          0x0000000000000000        0x0 libbb/lib.a(getpty.o)
 .data          0x0000000000000000        0x0 libbb/lib.a(getpty.o)
 .bss           0x0000000000000000        0x0 libbb/lib.a(getpty.o)
 .reginfo       0x0000000000000000       0x18 libbb/lib.a(getpty.o)
 .pdr           0x0000000000000000       0x20 libbb/lib.a(getpty.o)
 .text          0x0000000000000000        0x0 libbb/lib.a(inet_common.o)
 .data          0x0000000000000000        0x0 libbb/lib.a(inet_common.o)
 .bss           0x0000000000000000        0x0 libbb/lib.a(inet_common.o)
 .reginfo       0x0000000000000000       0x18 libbb/lib.a(inet_common.o)
 .pdr           0x0000000000000000       0x80 libbb/lib.a(inet_common.o)
 .text          0x0000000000000000        0x0 libbb/lib.a(info_msg.o)
 .data          0x0000000000000000        0x0 libbb/lib.a(info_msg.o)
 .bss           0x0000000000000000        0x0 libbb/lib.a(info_msg.o)
 .reginfo       0x0000000000000000       0x18 libbb/lib.a(info_msg.o)
 .pdr           0x0000000000000000       0x20 libbb/lib.a(info_msg.o)
 .text          0x0000000000000000        0x0 libbb/lib.a(inode_hash.o)
 .data          0x0000000000000000        0x0 libbb/lib.a(inode_hash.o)
 .bss           0x0000000000000000        0x0 libbb/lib.a(inode_hash.o)
 .reginfo       0x0000000000000000       0x18 libbb/lib.a(inode_hash.o)
 .pdr           0x0000000000000000       0x40 libbb/lib.a(inode_hash.o)
 .text          0x0000000000000000        0x0 libbb/lib.a(isdirectory.o)
 .data          0x0000000000000000        0x0 libbb/lib.a(isdirectory.o)
 .bss           0x0000000000000000        0x0 libbb/lib.a(isdirectory.o)
 .reginfo       0x0000000000000000       0x18 libbb/lib.a(isdirectory.o)
 .pdr           0x0000000000000000       0x20 libbb/lib.a(isdirectory.o)
 .text          0x0000000000000000        0x0 libbb/lib.a(lineedit.o)
 .data          0x0000000000000000        0x0 libbb/lib.a(lineedit.o)
 .bss           0x0000000000000000        0x0 libbb/lib.a(lineedit.o)
 .reginfo       0x0000000000000000       0x18 libbb/lib.a(lineedit.o)
 .pdr           0x0000000000000000      0x2a0 libbb/lib.a(lineedit.o)
 .text          0x0000000000000000        0x0 libbb/lib.a(lineedit_ptr_hack.o)
 .data          0x0000000000000000        0x0 libbb/lib.a(lineedit_ptr_hack.o)
 .bss           0x0000000000000000        0x0 libbb/lib.a(lineedit_ptr_hack.o)
 .reginfo       0x0000000000000000       0x18 libbb/lib.a(lineedit_ptr_hack.o)
 .text          0x0000000000000000        0x0 libbb/lib.a(llist.o)
 .data          0x0000000000000000        0x0 libbb/lib.a(llist.o)
 .bss           0x0000000000000000        0x0 libbb/lib.a(llist.o)
 .reginfo       0x0000000000000000       0x18 libbb/lib.a(llist.o)
 .pdr           0x0000000000000000       0xc0 libbb/lib.a(llist.o)
 .text.llist_unlink
                0x0000000000000000       0x50 libbb/lib.a(llist.o)
 .text.llist_free
                0x0000000000000000       0x48 libbb/lib.a(llist.o)
 .text          0x0000000000000000        0x0 libbb/lib.a(login.o)
 .data          0x0000000000000000        0x0 libbb/lib.a(login.o)
 .bss           0x0000000000000000        0x0 libbb/lib.a(login.o)
 .reginfo       0x0000000000000000       0x18 libbb/lib.a(login.o)
 .pdr           0x0000000000000000       0x60 libbb/lib.a(login.o)
 .text          0x0000000000000000        0x0 libbb/lib.a(make_directory.o)
 .data          0x0000000000000000        0x0 libbb/lib.a(make_directory.o)
 .bss           0x0000000000000000        0x0 libbb/lib.a(make_directory.o)
 .reginfo       0x0000000000000000       0x18 libbb/lib.a(make_directory.o)
 .pdr           0x0000000000000000       0x20 libbb/lib.a(make_directory.o)
 .text          0x0000000000000000        0x0 libbb/lib.a(match_fstype.o)
 .data          0x0000000000000000        0x0 libbb/lib.a(match_fstype.o)
 .bss           0x0000000000000000        0x0 libbb/lib.a(match_fstype.o)
 .reginfo       0x0000000000000000       0x18 libbb/lib.a(match_fstype.o)
 .pdr           0x0000000000000000       0x20 libbb/lib.a(match_fstype.o)
 .text          0x0000000000000000        0x0 libbb/lib.a(mode_string.o)
 .data          0x0000000000000000        0x0 libbb/lib.a(mode_string.o)
 .bss           0x0000000000000000        0x0 libbb/lib.a(mode_string.o)
 .reginfo       0x0000000000000000       0x18 libbb/lib.a(mode_string.o)
 .pdr           0x0000000000000000       0x20 libbb/lib.a(mode_string.o)
 .text          0x0000000000000000        0x0 libbb/lib.a(mtab_file.o)
 .data          0x0000000000000000        0x0 libbb/lib.a(mtab_file.o)
 .bss           0x0000000000000000        0x0 libbb/lib.a(mtab_file.o)
 .reginfo       0x0000000000000000       0x18 libbb/lib.a(mtab_file.o)
 .text          0x0000000000000000        0x0 libbb/lib.a(parse_config.o)
 .data          0x0000000000000000        0x0 libbb/lib.a(parse_config.o)
 .bss           0x0000000000000000        0x0 libbb/lib.a(parse_config.o)
 .reginfo       0x0000000000000000       0x18 libbb/lib.a(parse_config.o)
 .pdr           0x0000000000000000       0xa0 libbb/lib.a(parse_config.o)
 .text          0x0000000000000000        0x0 libbb/lib.a(parse_mode.o)
 .data          0x0000000000000000        0x0 libbb/lib.a(parse_mode.o)
 .bss           0x0000000000000000        0x0 libbb/lib.a(parse_mode.o)
 .reginfo       0x0000000000000000       0x18 libbb/lib.a(parse_mode.o)
 .pdr           0x0000000000000000       0x20 libbb/lib.a(parse_mode.o)
 .text          0x0000000000000000        0x0 libbb/lib.a(perror_nomsg_and_die.o)
 .data          0x0000000000000000        0x0 libbb/lib.a(perror_nomsg_and_die.o)
 .bss           0x0000000000000000        0x0 libbb/lib.a(perror_nomsg_and_die.o)
 .reginfo       0x0000000000000000       0x18 libbb/lib.a(perror_nomsg_and_die.o)
 .pdr           0x0000000000000000       0x20 libbb/lib.a(perror_nomsg_and_die.o)
 .text          0x0000000000000000        0x0 libbb/lib.a(process_escape_sequence.o)
 .data          0x0000000000000000        0x0 libbb/lib.a(process_escape_sequence.o)
 .bss           0x0000000000000000        0x0 libbb/lib.a(process_escape_sequence.o)
 .reginfo       0x0000000000000000       0x18 libbb/lib.a(process_escape_sequence.o)
 .pdr           0x0000000000000000       0x20 libbb/lib.a(process_escape_sequence.o)
 .text          0x0000000000000000        0x0 libbb/lib.a(procps.o)
 .data          0x0000000000000000        0x0 libbb/lib.a(procps.o)
 .bss           0x0000000000000000        0x0 libbb/lib.a(procps.o)
 .reginfo       0x0000000000000000       0x18 libbb/lib.a(procps.o)
 .pdr           0x0000000000000000      0x180 libbb/lib.a(procps.o)
 .text          0x0000000000000000        0x0 libbb/lib.a(pw_encrypt.o)
 .data          0x0000000000000000        0x0 libbb/lib.a(pw_encrypt.o)
 .bss           0x0000000000000000        0x0 libbb/lib.a(pw_encrypt.o)
 .reginfo       0x0000000000000000       0x18 libbb/lib.a(pw_encrypt.o)
 .pdr           0x0000000000000000       0x20 libbb/lib.a(pw_encrypt.o)
 .text          0x0000000000000000        0x0 libbb/lib.a(recursive_action.o)
 .data          0x0000000000000000        0x0 libbb/lib.a(recursive_action.o)
 .bss           0x0000000000000000        0x0 libbb/lib.a(recursive_action.o)
 .reginfo       0x0000000000000000       0x18 libbb/lib.a(recursive_action.o)
 .pdr           0x0000000000000000       0x40 libbb/lib.a(recursive_action.o)
 .text          0x0000000000000000        0x0 libbb/lib.a(remove_file.o)
 .data          0x0000000000000000        0x0 libbb/lib.a(remove_file.o)
 .bss           0x0000000000000000        0x0 libbb/lib.a(remove_file.o)
 .reginfo       0x0000000000000000       0x18 libbb/lib.a(remove_file.o)
 .pdr           0x0000000000000000       0x20 libbb/lib.a(remove_file.o)
 .text          0x0000000000000000        0x0 libbb/lib.a(run_shell.o)
 .data          0x0000000000000000        0x0 libbb/lib.a(run_shell.o)
 .bss           0x0000000000000000        0x0 libbb/lib.a(run_shell.o)
 .reginfo       0x0000000000000000       0x18 libbb/lib.a(run_shell.o)
 .pdr           0x0000000000000000       0x20 libbb/lib.a(run_shell.o)
 .text          0x0000000000000000        0x0 libbb/lib.a(safe_gethostname.o)
 .data          0x0000000000000000        0x0 libbb/lib.a(safe_gethostname.o)
 .bss           0x0000000000000000        0x0 libbb/lib.a(safe_gethostname.o)
 .reginfo       0x0000000000000000       0x18 libbb/lib.a(safe_gethostname.o)
 .pdr           0x0000000000000000       0x40 libbb/lib.a(safe_gethostname.o)
 .text.safe_getdomainname
                0x0000000000000000       0x38 libbb/lib.a(safe_gethostname.o)
 .text          0x0000000000000000        0x0 libbb/lib.a(safe_strncpy.o)
 .data          0x0000000000000000        0x0 libbb/lib.a(safe_strncpy.o)
 .bss           0x0000000000000000        0x0 libbb/lib.a(safe_strncpy.o)
 .reginfo       0x0000000000000000       0x18 libbb/lib.a(safe_strncpy.o)
 .pdr           0x0000000000000000       0x40 libbb/lib.a(safe_strncpy.o)
 .text          0x0000000000000000        0x0 libbb/lib.a(setup_environment.o)
 .data          0x0000000000000000        0x0 libbb/lib.a(setup_environment.o)
 .bss           0x0000000000000000        0x0 libbb/lib.a(setup_environment.o)
 .reginfo       0x0000000000000000       0x18 libbb/lib.a(setup_environment.o)
 .pdr           0x0000000000000000       0x20 libbb/lib.a(setup_environment.o)
 .text          0x0000000000000000        0x0 libbb/lib.a(signals.o)
 .data          0x0000000000000000        0x0 libbb/lib.a(signals.o)
 .bss           0x0000000000000000        0x0 libbb/lib.a(signals.o)
 .reginfo       0x0000000000000000       0x18 libbb/lib.a(signals.o)
 .pdr           0x0000000000000000      0x160 libbb/lib.a(signals.o)
 .text.wait_for_any_sig
                0x0000000000000000       0x30 libbb/lib.a(signals.o)
 .text.sig_block
                0x0000000000000000       0x4c libbb/lib.a(signals.o)
 .text.signal_no_SA_RESTART_empty_mask
                0x0000000000000000       0x38 libbb/lib.a(signals.o)
 .text.signal_SA_RESTART_empty_mask
                0x0000000000000000       0x3c libbb/lib.a(signals.o)
 .text.bb_signals_recursive
                0x0000000000000000       0x8c libbb/lib.a(signals.o)
 .text          0x0000000000000000        0x0 libbb/lib.a(simplify_path.o)
 .data          0x0000000000000000        0x0 libbb/lib.a(simplify_path.o)
 .bss           0x0000000000000000        0x0 libbb/lib.a(simplify_path.o)
 .reginfo       0x0000000000000000       0x18 libbb/lib.a(simplify_path.o)
 .pdr           0x0000000000000000       0x20 libbb/lib.a(simplify_path.o)
 .text          0x0000000000000000        0x0 libbb/lib.a(skip_whitespace.o)
 .data          0x0000000000000000        0x0 libbb/lib.a(skip_whitespace.o)
 .bss           0x0000000000000000        0x0 libbb/lib.a(skip_whitespace.o)
 .reginfo       0x0000000000000000       0x18 libbb/lib.a(skip_whitespace.o)
 .pdr           0x0000000000000000       0x40 libbb/lib.a(skip_whitespace.o)
 .text          0x0000000000000000        0x0 libbb/lib.a(strrstr.o)
 .data          0x0000000000000000        0x0 libbb/lib.a(strrstr.o)
 .bss           0x0000000000000000        0x0 libbb/lib.a(strrstr.o)
 .reginfo       0x0000000000000000       0x18 libbb/lib.a(strrstr.o)
 .pdr           0x0000000000000000       0x20 libbb/lib.a(strrstr.o)
 .text          0x0000000000000000        0x0 libbb/lib.a(time.o)
 .data          0x0000000000000000        0x0 libbb/lib.a(time.o)
 .bss           0x0000000000000000        0x0 libbb/lib.a(time.o)
 .reginfo       0x0000000000000000       0x18 libbb/lib.a(time.o)
 .pdr           0x0000000000000000       0x60 libbb/lib.a(time.o)
 .text.monotonic_ns
                0x0000000000000000       0x58 libbb/lib.a(time.o)
 .text          0x0000000000000000        0x0 libbb/lib.a(u_signal_names.o)
 .data          0x0000000000000000        0x0 libbb/lib.a(u_signal_names.o)
 .bss           0x0000000000000000        0x0 libbb/lib.a(u_signal_names.o)
 .reginfo       0x0000000000000000       0x18 libbb/lib.a(u_signal_names.o)
 .pdr           0x0000000000000000       0x60 libbb/lib.a(u_signal_names.o)
 .text          0x0000000000000000        0x0 libbb/lib.a(vfork_daemon_rexec.o)
 .data          0x0000000000000000        0x0 libbb/lib.a(vfork_daemon_rexec.o)
 .bss           0x0000000000000000        0x0 libbb/lib.a(vfork_daemon_rexec.o)
 .reginfo       0x0000000000000000       0x18 libbb/lib.a(vfork_daemon_rexec.o)
 .pdr           0x0000000000000000      0x1a0 libbb/lib.a(vfork_daemon_rexec.o)
 .text.save_nofork_data
                0x0000000000000000       0x68 libbb/lib.a(vfork_daemon_rexec.o)
 .text.restore_nofork_data
                0x0000000000000000       0x64 libbb/lib.a(vfork_daemon_rexec.o)
 .text.run_nofork_applet_prime
                0x0000000000000000      0x144 libbb/lib.a(vfork_daemon_rexec.o)
 .text.run_nofork_applet
                0x0000000000000000       0x48 libbb/lib.a(vfork_daemon_rexec.o)
 .text.wait4pid
                0x0000000000000000       0x5c libbb/lib.a(vfork_daemon_rexec.o)
 .text.spawn    0x0000000000000000       0x80 libbb/lib.a(vfork_daemon_rexec.o)
 .text.spawn_and_wait
                0x0000000000000000       0x94 libbb/lib.a(vfork_daemon_rexec.o)
 .text.xspawn   0x0000000000000000       0x30 libbb/lib.a(vfork_daemon_rexec.o)
 .text          0x0000000000000000        0x0 libbb/lib.a(wfopen.o)
 .data          0x0000000000000000        0x0 libbb/lib.a(wfopen.o)
 .bss           0x0000000000000000        0x0 libbb/lib.a(wfopen.o)
 .reginfo       0x0000000000000000       0x18 libbb/lib.a(wfopen.o)
 .pdr           0x0000000000000000       0xa0 libbb/lib.a(wfopen.o)
 .text.xfopen_for_write
                0x0000000000000000       0x10 libbb/lib.a(wfopen.o)
 .text.fopen_for_write
                0x0000000000000000       0x10 libbb/lib.a(wfopen.o)
 .text          0x0000000000000000        0x0 libbb/lib.a(wfopen_input.o)
 .data          0x0000000000000000        0x0 libbb/lib.a(wfopen_input.o)
 .bss           0x0000000000000000        0x0 libbb/lib.a(wfopen_input.o)
 .reginfo       0x0000000000000000       0x18 libbb/lib.a(wfopen_input.o)
 .pdr           0x0000000000000000       0x60 libbb/lib.a(wfopen_input.o)
 .text          0x0000000000000000        0x0 libbb/lib.a(xatonum.o)
 .data          0x0000000000000000        0x0 libbb/lib.a(xatonum.o)
 .bss           0x0000000000000000        0x0 libbb/lib.a(xatonum.o)
 .reginfo       0x0000000000000000       0x18 libbb/lib.a(xatonum.o)
 .pdr           0x0000000000000000      0x3c0 libbb/lib.a(xatonum.o)
 .text.xatol    0x0000000000000000       0x2c libbb/lib.a(xatonum.o)
 .text.xatol_sfx
                0x0000000000000000       0x2c libbb/lib.a(xatonum.o)
 .text.xatol_range_sfx
                0x0000000000000000       0x2c libbb/lib.a(xatonum.o)
 .text.xstrtol_range
                0x0000000000000000       0x1c libbb/lib.a(xatonum.o)
 .text.xatoul_range_sfx
                0x0000000000000000       0x2c libbb/lib.a(xatonum.o)
 .text.xstrtoul
                0x0000000000000000       0x24 libbb/lib.a(xatonum.o)
 .text.xstrtoul_sfx
                0x0000000000000000       0x24 libbb/lib.a(xatonum.o)
 .text.xstrtoul_range
                0x0000000000000000       0x1c libbb/lib.a(xatonum.o)
 .text.xstrtoull_range_sfx
                0x0000000000000000      0x1d4 libbb/lib.a(xatonum.o)
 .text.xstrtoll_range_sfx
                0x0000000000000000      0x128 libbb/lib.a(xatonum.o)
 .text.xatoll   0x0000000000000000       0x3c libbb/lib.a(xatonum.o)
 .text.xatoll_sfx
                0x0000000000000000       0x3c libbb/lib.a(xatonum.o)
 .text.xatoll_range
                0x0000000000000000       0x30 libbb/lib.a(xatonum.o)
 .text.xatoll_range_sfx
                0x0000000000000000        0xc libbb/lib.a(xatonum.o)
 .text.xstrtoll_range
                0x0000000000000000       0x2c libbb/lib.a(xatonum.o)
 .text.xatoull_sfx
                0x0000000000000000       0x38 libbb/lib.a(xatonum.o)
 .text.xatoull  0x0000000000000000        0xc libbb/lib.a(xatonum.o)
 .text.xatoull_range
                0x0000000000000000       0x30 libbb/lib.a(xatonum.o)
 .text.xatoull_range_sfx
                0x0000000000000000        0xc libbb/lib.a(xatonum.o)
 .text.xstrtoull
                0x0000000000000000       0x34 libbb/lib.a(xatonum.o)
 .text.xstrtoull_sfx
                0x0000000000000000       0x34 libbb/lib.a(xatonum.o)
 .text.xstrtoull_range
                0x0000000000000000       0x2c libbb/lib.a(xatonum.o)
 .text          0x0000000000000000        0x0 libbb/lib.a(xconnect.o)
 .data          0x0000000000000000        0x0 libbb/lib.a(xconnect.o)
 .bss           0x0000000000000000        0x0 libbb/lib.a(xconnect.o)
 .reginfo       0x0000000000000000       0x18 libbb/lib.a(xconnect.o)
 .pdr           0x0000000000000000      0x340 libbb/lib.a(xconnect.o)
 .text.get_nport
                0x0000000000000000       0x2c libbb/lib.a(xconnect.o)
 .text.xmalloc_sockaddr2dotted
                0x0000000000000000        0xc libbb/lib.a(xconnect.o)
 .text.xmalloc_sockaddr2hostonly_noport
                0x0000000000000000        0xc libbb/lib.a(xconnect.o)
 .text.xmalloc_sockaddr2host
                0x0000000000000000        0xc libbb/lib.a(xconnect.o)
 .text.xsocket_stream
                0x0000000000000000       0x10 libbb/lib.a(xconnect.o)
 .text.host_and_af2sockaddr
                0x0000000000000000       0x10 libbb/lib.a(xconnect.o)
 .text.xconnect_stream
                0x0000000000000000       0x48 libbb/lib.a(xconnect.o)
 .text.create_and_connect_stream_or_die
                0x0000000000000000       0x64 libbb/lib.a(xconnect.o)
 .text.create_and_bind_dgram_or_die
                0x0000000000000000        0xc libbb/lib.a(xconnect.o)
 .text          0x0000000000000000        0x0 libbb/lib.a(xfuncs.o)
 .data          0x0000000000000000        0x0 libbb/lib.a(xfuncs.o)
 .bss           0x0000000000000000        0x0 libbb/lib.a(xfuncs.o)
 .reginfo       0x0000000000000000       0x18 libbb/lib.a(xfuncs.o)
 .pdr           0x0000000000000000      0x180 libbb/lib.a(xfuncs.o)
 .text.smart_ulltoa4
                0x0000000000000000      0x1c4 libbb/lib.a(xfuncs.o)
 .text.bin2hex  0x0000000000000000       0x5c libbb/lib.a(xfuncs.o)
 .text          0x0000000000000000        0x0 libbb/lib.a(xgetcwd.o)
 .data          0x0000000000000000        0x0 libbb/lib.a(xgetcwd.o)
 .bss           0x0000000000000000        0x0 libbb/lib.a(xgetcwd.o)
 .reginfo       0x0000000000000000       0x18 libbb/lib.a(xgetcwd.o)
 .pdr           0x0000000000000000       0x20 libbb/lib.a(xgetcwd.o)
 .text          0x0000000000000000        0x0 libbb/lib.a(xgethostbyname.o)
 .data          0x0000000000000000        0x0 libbb/lib.a(xgethostbyname.o)
 .bss           0x0000000000000000        0x0 libbb/lib.a(xgethostbyname.o)
 .reginfo       0x0000000000000000       0x18 libbb/lib.a(xgethostbyname.o)
 .pdr           0x0000000000000000       0x20 libbb/lib.a(xgethostbyname.o)
 .text          0x0000000000000000        0x0 libbb/lib.a(xreadlink.o)
 .data          0x0000000000000000        0x0 libbb/lib.a(xreadlink.o)
 .bss           0x0000000000000000        0x0 libbb/lib.a(xreadlink.o)
 .reginfo       0x0000000000000000       0x18 libbb/lib.a(xreadlink.o)
 .pdr           0x0000000000000000       0x60 libbb/lib.a(xreadlink.o)
 .text          0x0000000000000000        0x0 libbb/lib.a(xrealloc_vector.o)
 .data          0x0000000000000000        0x0 libbb/lib.a(xrealloc_vector.o)
 .bss           0x0000000000000000        0x0 libbb/lib.a(xrealloc_vector.o)
 .reginfo       0x0000000000000000       0x18 libbb/lib.a(xrealloc_vector.o)
 .pdr           0x0000000000000000       0x20 libbb/lib.a(xrealloc_vector.o)
 .text          0x0000000000000000        0x0 libbb/lib.a(xregcomp.o)
 .data          0x0000000000000000        0x0 libbb/lib.a(xregcomp.o)
 .bss           0x0000000000000000        0x0 libbb/lib.a(xregcomp.o)
 .reginfo       0x0000000000000000       0x18 libbb/lib.a(xregcomp.o)
 .pdr           0x0000000000000000       0x40 libbb/lib.a(xregcomp.o)
 .text          0x0000000000000000        0x0 libbb/lib.a(ask_confirmation.o)
 .data          0x0000000000000000        0x0 libbb/lib.a(ask_confirmation.o)
 .bss           0x0000000000000000        0x0 libbb/lib.a(ask_confirmation.o)
 .reginfo       0x0000000000000000       0x18 libbb/lib.a(ask_confirmation.o)
 .pdr           0x0000000000000000       0x20 libbb/lib.a(ask_confirmation.o)
 .text          0x0000000000000000        0x0 libbb/lib.a(bb_askpass.o)
 .data          0x0000000000000000        0x0 libbb/lib.a(bb_askpass.o)
 .bss           0x0000000000000000        0x0 libbb/lib.a(bb_askpass.o)
 .reginfo       0x0000000000000000       0x18 libbb/lib.a(bb_askpass.o)
 .pdr           0x0000000000000000       0x40 libbb/lib.a(bb_askpass.o)
 .text          0x0000000000000000        0x0 libbb/lib.a(bb_pwd.o)
 .data          0x0000000000000000        0x0 libbb/lib.a(bb_pwd.o)
 .bss           0x0000000000000000        0x0 libbb/lib.a(bb_pwd.o)
 .reginfo       0x0000000000000000       0x18 libbb/lib.a(bb_pwd.o)
 .pdr           0x0000000000000000       0xc0 libbb/lib.a(bb_pwd.o)
 .text.get_ug_id
                0x0000000000000000       0x60 libbb/lib.a(bb_pwd.o)
 .text.xuname2uid
                0x0000000000000000       0x34 libbb/lib.a(bb_pwd.o)
 .text.xgroup2gid
                0x0000000000000000       0x34 libbb/lib.a(bb_pwd.o)
 .text          0x0000000000000000        0x0 libbb/lib.a(bb_qsort.o)
 .data          0x0000000000000000        0x0 libbb/lib.a(bb_qsort.o)
 .bss           0x0000000000000000        0x0 libbb/lib.a(bb_qsort.o)
 .reginfo       0x0000000000000000       0x18 libbb/lib.a(bb_qsort.o)
 .pdr           0x0000000000000000       0x40 libbb/lib.a(bb_qsort.o)
 .text          0x0000000000000000        0x0 libbb/lib.a(concat_subpath_file.o)
 .data          0x0000000000000000        0x0 libbb/lib.a(concat_subpath_file.o)
 .bss           0x0000000000000000        0x0 libbb/lib.a(concat_subpath_file.o)
 .reginfo       0x0000000000000000       0x18 libbb/lib.a(concat_subpath_file.o)
 .pdr           0x0000000000000000       0x20 libbb/lib.a(concat_subpath_file.o)
 .text          0x0000000000000000        0x0 libbb/lib.a(herror_msg_and_die.o)
 .data          0x0000000000000000        0x0 libbb/lib.a(herror_msg_and_die.o)
 .bss           0x0000000000000000        0x0 libbb/lib.a(herror_msg_and_die.o)
 .reginfo       0x0000000000000000       0x18 libbb/lib.a(herror_msg_and_die.o)
 .pdr           0x0000000000000000       0x20 libbb/lib.a(herror_msg_and_die.o)
 .data          0x0000000000000000        0x0 /data/xiaoning/RealTek/HN120/toolchain/msdk-4.4.7-mips-EL-3.10-u0.9.33-m32t-140827/bin/../lib/gcc/mips-linux-uclibc/4.4.7/soft-float/el/libgcc.a(_bswapsi2.o)
 .bss           0x0000000000000000        0x0 /data/xiaoning/RealTek/HN120/toolchain/msdk-4.4.7-mips-EL-3.10-u0.9.33-m32t-140827/bin/../lib/gcc/mips-linux-uclibc/4.4.7/soft-float/el/libgcc.a(_bswapsi2.o)
 .reginfo       0x0000000000000000       0x18 /data/xiaoning/RealTek/HN120/toolchain/msdk-4.4.7-mips-EL-3.10-u0.9.33-m32t-140827/bin/../lib/gcc/mips-linux-uclibc/4.4.7/soft-float/el/libgcc.a(_bswapsi2.o)
 .pdr           0x0000000000000000       0x20 /data/xiaoning/RealTek/HN120/toolchain/msdk-4.4.7-mips-EL-3.10-u0.9.33-m32t-140827/bin/../lib/gcc/mips-linux-uclibc/4.4.7/soft-float/el/libgcc.a(_bswapsi2.o)
 .data          0x0000000000000000        0x0 /data/xiaoning/RealTek/HN120/toolchain/msdk-4.4.7-mips-EL-3.10-u0.9.33-m32t-140827/bin/../lib/gcc/mips-linux-uclibc/4.4.7/soft-float/el/libgcc.a(_fixunsdfsi.o)
 .bss           0x0000000000000000        0x0 /data/xiaoning/RealTek/HN120/toolchain/msdk-4.4.7-mips-EL-3.10-u0.9.33-m32t-140827/bin/../lib/gcc/mips-linux-uclibc/4.4.7/soft-float/el/libgcc.a(_fixunsdfsi.o)
 .reginfo       0x0000000000000000       0x18 /data/xiaoning/RealTek/HN120/toolchain/msdk-4.4.7-mips-EL-3.10-u0.9.33-m32t-140827/bin/../lib/gcc/mips-linux-uclibc/4.4.7/soft-float/el/libgcc.a(_fixunsdfsi.o)
 .pdr           0x0000000000000000       0x20 /data/xiaoning/RealTek/HN120/toolchain/msdk-4.4.7-mips-EL-3.10-u0.9.33-m32t-140827/bin/../lib/gcc/mips-linux-uclibc/4.4.7/soft-float/el/libgcc.a(_fixunsdfsi.o)
 .data          0x0000000000000000        0x0 /data/xiaoning/RealTek/HN120/toolchain/msdk-4.4.7-mips-EL-3.10-u0.9.33-m32t-140827/bin/../lib/gcc/mips-linux-uclibc/4.4.7/soft-float/el/libgcc.a(_udivdi3.o)
 .bss           0x0000000000000000        0x0 /data/xiaoning/RealTek/HN120/toolchain/msdk-4.4.7-mips-EL-3.10-u0.9.33-m32t-140827/bin/../lib/gcc/mips-linux-uclibc/4.4.7/soft-float/el/libgcc.a(_udivdi3.o)
 .reginfo       0x0000000000000000       0x18 /data/xiaoning/RealTek/HN120/toolchain/msdk-4.4.7-mips-EL-3.10-u0.9.33-m32t-140827/bin/../lib/gcc/mips-linux-uclibc/4.4.7/soft-float/el/libgcc.a(_udivdi3.o)
 .pdr           0x0000000000000000       0x20 /data/xiaoning/RealTek/HN120/toolchain/msdk-4.4.7-mips-EL-3.10-u0.9.33-m32t-140827/bin/../lib/gcc/mips-linux-uclibc/4.4.7/soft-float/el/libgcc.a(_udivdi3.o)
 .data          0x0000000000000000        0x0 /data/xiaoning/RealTek/HN120/toolchain/msdk-4.4.7-mips-EL-3.10-u0.9.33-m32t-140827/bin/../lib/gcc/mips-linux-uclibc/4.4.7/soft-float/el/libgcc.a(adddf3.o)
 .bss           0x0000000000000000        0x0 /data/xiaoning/RealTek/HN120/toolchain/msdk-4.4.7-mips-EL-3.10-u0.9.33-m32t-140827/bin/../lib/gcc/mips-linux-uclibc/4.4.7/soft-float/el/libgcc.a(adddf3.o)
 .reginfo       0x0000000000000000       0x18 /data/xiaoning/RealTek/HN120/toolchain/msdk-4.4.7-mips-EL-3.10-u0.9.33-m32t-140827/bin/../lib/gcc/mips-linux-uclibc/4.4.7/soft-float/el/libgcc.a(adddf3.o)
 .pdr           0x0000000000000000       0x20 /data/xiaoning/RealTek/HN120/toolchain/msdk-4.4.7-mips-EL-3.10-u0.9.33-m32t-140827/bin/../lib/gcc/mips-linux-uclibc/4.4.7/soft-float/el/libgcc.a(adddf3.o)
 .data          0x0000000000000000        0x0 /data/xiaoning/RealTek/HN120/toolchain/msdk-4.4.7-mips-EL-3.10-u0.9.33-m32t-140827/bin/../lib/gcc/mips-linux-uclibc/4.4.7/soft-float/el/libgcc.a(divdf3.o)
 .bss           0x0000000000000000        0x0 /data/xiaoning/RealTek/HN120/toolchain/msdk-4.4.7-mips-EL-3.10-u0.9.33-m32t-140827/bin/../lib/gcc/mips-linux-uclibc/4.4.7/soft-float/el/libgcc.a(divdf3.o)
 .reginfo       0x0000000000000000       0x18 /data/xiaoning/RealTek/HN120/toolchain/msdk-4.4.7-mips-EL-3.10-u0.9.33-m32t-140827/bin/../lib/gcc/mips-linux-uclibc/4.4.7/soft-float/el/libgcc.a(divdf3.o)
 .pdr           0x0000000000000000       0x20 /data/xiaoning/RealTek/HN120/toolchain/msdk-4.4.7-mips-EL-3.10-u0.9.33-m32t-140827/bin/../lib/gcc/mips-linux-uclibc/4.4.7/soft-float/el/libgcc.a(divdf3.o)
 .data          0x0000000000000000        0x0 /data/xiaoning/RealTek/HN120/toolchain/msdk-4.4.7-mips-EL-3.10-u0.9.33-m32t-140827/bin/../lib/gcc/mips-linux-uclibc/4.4.7/soft-float/el/libgcc.a(eqdf2.o)
 .bss           0x0000000000000000        0x0 /data/xiaoning/RealTek/HN120/toolchain/msdk-4.4.7-mips-EL-3.10-u0.9.33-m32t-140827/bin/../lib/gcc/mips-linux-uclibc/4.4.7/soft-float/el/libgcc.a(eqdf2.o)
 .reginfo       0x0000000000000000       0x18 /data/xiaoning/RealTek/HN120/toolchain/msdk-4.4.7-mips-EL-3.10-u0.9.33-m32t-140827/bin/../lib/gcc/mips-linux-uclibc/4.4.7/soft-float/el/libgcc.a(eqdf2.o)
 .pdr           0x0000000000000000       0x20 /data/xiaoning/RealTek/HN120/toolchain/msdk-4.4.7-mips-EL-3.10-u0.9.33-m32t-140827/bin/../lib/gcc/mips-linux-uclibc/4.4.7/soft-float/el/libgcc.a(eqdf2.o)
 .data          0x0000000000000000        0x0 /data/xiaoning/RealTek/HN120/toolchain/msdk-4.4.7-mips-EL-3.10-u0.9.33-m32t-140827/bin/../lib/gcc/mips-linux-uclibc/4.4.7/soft-float/el/libgcc.a(gedf2.o)
 .bss           0x0000000000000000        0x0 /data/xiaoning/RealTek/HN120/toolchain/msdk-4.4.7-mips-EL-3.10-u0.9.33-m32t-140827/bin/../lib/gcc/mips-linux-uclibc/4.4.7/soft-float/el/libgcc.a(gedf2.o)
 .reginfo       0x0000000000000000       0x18 /data/xiaoning/RealTek/HN120/toolchain/msdk-4.4.7-mips-EL-3.10-u0.9.33-m32t-140827/bin/../lib/gcc/mips-linux-uclibc/4.4.7/soft-float/el/libgcc.a(gedf2.o)
 .pdr           0x0000000000000000       0x20 /data/xiaoning/RealTek/HN120/toolchain/msdk-4.4.7-mips-EL-3.10-u0.9.33-m32t-140827/bin/../lib/gcc/mips-linux-uclibc/4.4.7/soft-float/el/libgcc.a(gedf2.o)
 .data          0x0000000000000000        0x0 /data/xiaoning/RealTek/HN120/toolchain/msdk-4.4.7-mips-EL-3.10-u0.9.33-m32t-140827/bin/../lib/gcc/mips-linux-uclibc/4.4.7/soft-float/el/libgcc.a(ledf2.o)
 .bss           0x0000000000000000        0x0 /data/xiaoning/RealTek/HN120/toolchain/msdk-4.4.7-mips-EL-3.10-u0.9.33-m32t-140827/bin/../lib/gcc/mips-linux-uclibc/4.4.7/soft-float/el/libgcc.a(ledf2.o)
 .reginfo       0x0000000000000000       0x18 /data/xiaoning/RealTek/HN120/toolchain/msdk-4.4.7-mips-EL-3.10-u0.9.33-m32t-140827/bin/../lib/gcc/mips-linux-uclibc/4.4.7/soft-float/el/libgcc.a(ledf2.o)
 .pdr           0x0000000000000000       0x20 /data/xiaoning/RealTek/HN120/toolchain/msdk-4.4.7-mips-EL-3.10-u0.9.33-m32t-140827/bin/../lib/gcc/mips-linux-uclibc/4.4.7/soft-float/el/libgcc.a(ledf2.o)
 .data          0x0000000000000000        0x0 /data/xiaoning/RealTek/HN120/toolchain/msdk-4.4.7-mips-EL-3.10-u0.9.33-m32t-140827/bin/../lib/gcc/mips-linux-uclibc/4.4.7/soft-float/el/libgcc.a(muldf3.o)
 .bss           0x0000000000000000        0x0 /data/xiaoning/RealTek/HN120/toolchain/msdk-4.4.7-mips-EL-3.10-u0.9.33-m32t-140827/bin/../lib/gcc/mips-linux-uclibc/4.4.7/soft-float/el/libgcc.a(muldf3.o)
 .reginfo       0x0000000000000000       0x18 /data/xiaoning/RealTek/HN120/toolchain/msdk-4.4.7-mips-EL-3.10-u0.9.33-m32t-140827/bin/../lib/gcc/mips-linux-uclibc/4.4.7/soft-float/el/libgcc.a(muldf3.o)
 .pdr           0x0000000000000000       0x20 /data/xiaoning/RealTek/HN120/toolchain/msdk-4.4.7-mips-EL-3.10-u0.9.33-m32t-140827/bin/../lib/gcc/mips-linux-uclibc/4.4.7/soft-float/el/libgcc.a(muldf3.o)
 .data          0x0000000000000000        0x0 /data/xiaoning/RealTek/HN120/toolchain/msdk-4.4.7-mips-EL-3.10-u0.9.33-m32t-140827/bin/../lib/gcc/mips-linux-uclibc/4.4.7/soft-float/el/libgcc.a(subdf3.o)
 .bss           0x0000000000000000        0x0 /data/xiaoning/RealTek/HN120/toolchain/msdk-4.4.7-mips-EL-3.10-u0.9.33-m32t-140827/bin/../lib/gcc/mips-linux-uclibc/4.4.7/soft-float/el/libgcc.a(subdf3.o)
 .reginfo       0x0000000000000000       0x18 /data/xiaoning/RealTek/HN120/toolchain/msdk-4.4.7-mips-EL-3.10-u0.9.33-m32t-140827/bin/../lib/gcc/mips-linux-uclibc/4.4.7/soft-float/el/libgcc.a(subdf3.o)
 .pdr           0x0000000000000000       0x20 /data/xiaoning/RealTek/HN120/toolchain/msdk-4.4.7-mips-EL-3.10-u0.9.33-m32t-140827/bin/../lib/gcc/mips-linux-uclibc/4.4.7/soft-float/el/libgcc.a(subdf3.o)
 .data          0x0000000000000000        0x0 /data/xiaoning/RealTek/HN120/toolchain/msdk-4.4.7-mips-EL-3.10-u0.9.33-m32t-140827/bin/../lib/gcc/mips-linux-uclibc/4.4.7/soft-float/el/libgcc.a(fixdfsi.o)
 .bss           0x0000000000000000        0x0 /data/xiaoning/RealTek/HN120/toolchain/msdk-4.4.7-mips-EL-3.10-u0.9.33-m32t-140827/bin/../lib/gcc/mips-linux-uclibc/4.4.7/soft-float/el/libgcc.a(fixdfsi.o)
 .reginfo       0x0000000000000000       0x18 /data/xiaoning/RealTek/HN120/toolchain/msdk-4.4.7-mips-EL-3.10-u0.9.33-m32t-140827/bin/../lib/gcc/mips-linux-uclibc/4.4.7/soft-float/el/libgcc.a(fixdfsi.o)
 .pdr           0x0000000000000000       0x20 /data/xiaoning/RealTek/HN120/toolchain/msdk-4.4.7-mips-EL-3.10-u0.9.33-m32t-140827/bin/../lib/gcc/mips-linux-uclibc/4.4.7/soft-float/el/libgcc.a(fixdfsi.o)
 .data          0x0000000000000000        0x0 /data/xiaoning/RealTek/HN120/toolchain/msdk-4.4.7-mips-EL-3.10-u0.9.33-m32t-140827/bin/../lib/gcc/mips-linux-uclibc/4.4.7/soft-float/el/libgcc.a(floatsidf.o)
 .bss           0x0000000000000000        0x0 /data/xiaoning/RealTek/HN120/toolchain/msdk-4.4.7-mips-EL-3.10-u0.9.33-m32t-140827/bin/../lib/gcc/mips-linux-uclibc/4.4.7/soft-float/el/libgcc.a(floatsidf.o)
 .reginfo       0x0000000000000000       0x18 /data/xiaoning/RealTek/HN120/toolchain/msdk-4.4.7-mips-EL-3.10-u0.9.33-m32t-140827/bin/../lib/gcc/mips-linux-uclibc/4.4.7/soft-float/el/libgcc.a(floatsidf.o)
 .pdr           0x0000000000000000       0x20 /data/xiaoning/RealTek/HN120/toolchain/msdk-4.4.7-mips-EL-3.10-u0.9.33-m32t-140827/bin/../lib/gcc/mips-linux-uclibc/4.4.7/soft-float/el/libgcc.a(floatsidf.o)
 .data          0x0000000000000000        0x0 /data/xiaoning/RealTek/HN120/toolchain/msdk-4.4.7-mips-EL-3.10-u0.9.33-m32t-140827/bin/../lib/gcc/mips-linux-uclibc/4.4.7/soft-float/el/libgcc.a(floatunsidf.o)
 .bss           0x0000000000000000        0x0 /data/xiaoning/RealTek/HN120/toolchain/msdk-4.4.7-mips-EL-3.10-u0.9.33-m32t-140827/bin/../lib/gcc/mips-linux-uclibc/4.4.7/soft-float/el/libgcc.a(floatunsidf.o)
 .reginfo       0x0000000000000000       0x18 /data/xiaoning/RealTek/HN120/toolchain/msdk-4.4.7-mips-EL-3.10-u0.9.33-m32t-140827/bin/../lib/gcc/mips-linux-uclibc/4.4.7/soft-float/el/libgcc.a(floatunsidf.o)
 .pdr           0x0000000000000000       0x20 /data/xiaoning/RealTek/HN120/toolchain/msdk-4.4.7-mips-EL-3.10-u0.9.33-m32t-140827/bin/../lib/gcc/mips-linux-uclibc/4.4.7/soft-float/el/libgcc.a(floatunsidf.o)
 .data          0x0000000000000000        0x0 /data/xiaoning/RealTek/HN120/toolchain/msdk-4.4.7-mips-EL-3.10-u0.9.33-m32t-140827/bin/../lib/gcc/mips-linux-uclibc/4.4.7/soft-float/el/crtend.o
 .bss           0x0000000000000000        0x0 /data/xiaoning/RealTek/HN120/toolchain/msdk-4.4.7-mips-EL-3.10-u0.9.33-m32t-140827/bin/../lib/gcc/mips-linux-uclibc/4.4.7/soft-float/el/crtend.o
 .reginfo       0x0000000000000000       0x18 /data/xiaoning/RealTek/HN120/toolchain/msdk-4.4.7-mips-EL-3.10-u0.9.33-m32t-140827/bin/../lib/gcc/mips-linux-uclibc/4.4.7/soft-float/el/crtend.o
 .text          0x0000000000000000        0x0 /data/xiaoning/RealTek/HN120/toolchain/msdk-4.4.7-mips-EL-3.10-u0.9.33-m32t-140827/bin/../lib/gcc/mips-linux-uclibc/4.4.7/../../../../mips-linux-uclibc/lib/crtn.o
 .data          0x0000000000000000        0x0 /data/xiaoning/RealTek/HN120/toolchain/msdk-4.4.7-mips-EL-3.10-u0.9.33-m32t-140827/bin/../lib/gcc/mips-linux-uclibc/4.4.7/../../../../mips-linux-uclibc/lib/crtn.o
 .bss           0x0000000000000000        0x0 /data/xiaoning/RealTek/HN120/toolchain/msdk-4.4.7-mips-EL-3.10-u0.9.33-m32t-140827/bin/../lib/gcc/mips-linux-uclibc/4.4.7/../../../../mips-linux-uclibc/lib/crtn.o
 .reginfo       0x0000000000000000       0x18 /data/xiaoning/RealTek/HN120/toolchain/msdk-4.4.7-mips-EL-3.10-u0.9.33-m32t-140827/bin/../lib/gcc/mips-linux-uclibc/4.4.7/../../../../mips-linux-uclibc/lib/crtn.o
 .note.GNU-stack
                0x0000000000000000        0x0 /data/xiaoning/RealTek/HN120/toolchain/msdk-4.4.7-mips-EL-3.10-u0.9.33-m32t-140827/bin/../lib/gcc/mips-linux-uclibc/4.4.7/../../../../mips-linux-uclibc/lib/crtn.o

Memory Configuration

Name             Origin             Length             Attributes
*default*        0x0000000000000000 0xffffffffffffffff

Linker script and memory map

LOAD /data/xiaoning/RealTek/HN120/toolchain/msdk-4.4.7-mips-EL-3.10-u0.9.33-m32t-140827/bin/../lib/gcc/mips-linux-uclibc/4.4.7/../../../../mips-linux-uclibc/lib/crt1.o
LOAD /data/xiaoning/RealTek/HN120/toolchain/msdk-4.4.7-mips-EL-3.10-u0.9.33-m32t-140827/bin/../lib/gcc/mips-linux-uclibc/4.4.7/../../../../mips-linux-uclibc/lib/crti.o
LOAD /data/xiaoning/RealTek/HN120/toolchain/msdk-4.4.7-mips-EL-3.10-u0.9.33-m32t-140827/bin/../lib/gcc/mips-linux-uclibc/4.4.7/soft-float/el/crtbegin.o
START GROUP
LOAD applets/built-in.o
LOAD archival/lib.a
LOAD archival/libunarchive/lib.a
LOAD console-tools/lib.a
LOAD coreutils/lib.a
LOAD coreutils/libcoreutils/lib.a
LOAD debianutils/lib.a
LOAD e2fsprogs/lib.a
LOAD editors/lib.a
LOAD findutils/lib.a
LOAD init/lib.a
LOAD libbb/lib.a
LOAD libpwdgrp/lib.a
LOAD loginutils/lib.a
LOAD mailutils/lib.a
LOAD miscutils/lib.a
LOAD modutils/lib.a
LOAD networking/lib.a
LOAD networking/libiproute/lib.a
LOAD networking/udhcp/lib.a
LOAD printutils/lib.a
LOAD procps/lib.a
LOAD runit/lib.a
LOAD selinux/lib.a
LOAD shell/lib.a
LOAD sysklogd/lib.a
LOAD util-linux/lib.a
LOAD util-linux/volume_id/lib.a
LOAD archival/built-in.o
LOAD archival/libunarchive/built-in.o
LOAD console-tools/built-in.o
LOAD coreutils/built-in.o
LOAD coreutils/libcoreutils/built-in.o
LOAD debianutils/built-in.o
LOAD e2fsprogs/built-in.o
LOAD editors/built-in.o
LOAD findutils/built-in.o
LOAD init/built-in.o
LOAD libbb/built-in.o
LOAD libpwdgrp/built-in.o
LOAD loginutils/built-in.o
LOAD mailutils/built-in.o
LOAD miscutils/built-in.o
LOAD modutils/built-in.o
LOAD networking/built-in.o
LOAD networking/libiproute/built-in.o
LOAD networking/udhcp/built-in.o
LOAD printutils/built-in.o
LOAD procps/built-in.o
LOAD runit/built-in.o
LOAD selinux/built-in.o
LOAD shell/built-in.o
LOAD sysklogd/built-in.o
LOAD util-linux/built-in.o
LOAD util-linux/volume_id/built-in.o
END GROUP
START GROUP
LOAD /data/xiaoning/RealTek/HN120/toolchain/msdk-4.4.7-mips-EL-3.10-u0.9.33-m32t-140827/bin/../lib/gcc/mips-linux-uclibc/4.4.7/../../../../mips-linux-uclibc/lib/libcrypt.so
LOAD /data/xiaoning/RealTek/HN120/toolchain/msdk-4.4.7-mips-EL-3.10-u0.9.33-m32t-140827/bin/../lib/gcc/mips-linux-uclibc/4.4.7/../../../../mips-linux-uclibc/lib/libm.so
END GROUP
LOAD /data/xiaoning/RealTek/HN120/toolchain/msdk-4.4.7-mips-EL-3.10-u0.9.33-m32t-140827/bin/../lib/gcc/mips-linux-uclibc/4.4.7/soft-float/el/libgcc.a
LOAD /data/xiaoning/RealTek/HN120/toolchain/msdk-4.4.7-mips-EL-3.10-u0.9.33-m32t-140827/bin/../lib/gcc/mips-linux-uclibc/4.4.7/soft-float/el/libgcc_eh.a
LOAD /data/xiaoning/RealTek/HN120/toolchain/msdk-4.4.7-mips-EL-3.10-u0.9.33-m32t-140827/bin/../lib/gcc/mips-linux-uclibc/4.4.7/../../../../mips-linux-uclibc/lib/libc.so
START GROUP
LOAD /data/xiaoning/RealTek/HN120/toolchain/msdk-4.4.7-mips-EL-3.10-u0.9.33-m32t-140827/bin/../lib/gcc/mips-linux-uclibc/4.4.7/../../../../mips-linux-uclibc/lib/libc.so.0
LOAD /data/xiaoning/RealTek/HN120/toolchain/msdk-4.4.7-mips-EL-3.10-u0.9.33-m32t-140827/bin/../lib/gcc/mips-linux-uclibc/4.4.7/../../../../mips-linux-uclibc/lib/uclibc_nonshared.a
LOAD /data/xiaoning/RealTek/HN120/toolchain/msdk-4.4.7-mips-EL-3.10-u0.9.33-m32t-140827/bin/../lib/gcc/mips-linux-uclibc/4.4.7/../../../../mips-linux-uclibc/lib/ld-uClibc.so.0
END GROUP
START GROUP
LOAD /data/xiaoning/RealTek/HN120/toolchain/msdk-4.4.7-mips-EL-3.10-u0.9.33-m32t-140827/bin/../lib/gcc/mips-linux-uclibc/4.4.7/../../../../mips-linux-uclibc/lib/libubacktrace.so.0
END GROUP
LOAD /data/xiaoning/RealTek/HN120/toolchain/msdk-4.4.7-mips-EL-3.10-u0.9.33-m32t-140827/bin/../lib/gcc/mips-linux-uclibc/4.4.7/soft-float/el/libgcc.a
LOAD /data/xiaoning/RealTek/HN120/toolchain/msdk-4.4.7-mips-EL-3.10-u0.9.33-m32t-140827/bin/../lib/gcc/mips-linux-uclibc/4.4.7/soft-float/el/libgcc_eh.a
LOAD /data/xiaoning/RealTek/HN120/toolchain/msdk-4.4.7-mips-EL-3.10-u0.9.33-m32t-140827/bin/../lib/gcc/mips-linux-uclibc/4.4.7/soft-float/el/crtend.o
LOAD /data/xiaoning/RealTek/HN120/toolchain/msdk-4.4.7-mips-EL-3.10-u0.9.33-m32t-140827/bin/../lib/gcc/mips-linux-uclibc/4.4.7/../../../../mips-linux-uclibc/lib/crtn.o
                0x0000000000400000                PROVIDE (__executable_start, 0x400000)
                0x0000000000400134                . = (0x400000 + SIZEOF_HEADERS)

.interp         0x0000000000400134       0x14
 *(SORT(.interp))
 .interp        0x0000000000400134       0x14 /data/xiaoning/RealTek/HN120/toolchain/msdk-4.4.7-mips-EL-3.10-u0.9.33-m32t-140827/bin/../lib/gcc/mips-linux-uclibc/4.4.7/../../../../mips-linux-uclibc/lib/crt1.o

.reginfo
 *(SORT(.reginfo))

.note.gnu.build-id
 *(SORT(.note.gnu.build-id))

.dynamic        0x0000000000400148      0x108
 *(SORT(.dynamic))
 .dynamic       0x0000000000400148      0x108 /data/xiaoning/RealTek/HN120/toolchain/msdk-4.4.7-mips-EL-3.10-u0.9.33-m32t-140827/bin/../lib/gcc/mips-linux-uclibc/4.4.7/../../../../mips-linux-uclibc/lib/crt1.o
                0x0000000000400148                _DYNAMIC

.hash           0x0000000000400250      0x878
 *(SORT(.hash))
 .hash          0x0000000000400250      0x878 /data/xiaoning/RealTek/HN120/toolchain/msdk-4.4.7-mips-EL-3.10-u0.9.33-m32t-140827/bin/../lib/gcc/mips-linux-uclibc/4.4.7/../../../../mips-linux-uclibc/lib/crt1.o

.gnu.hash
 *(SORT(.gnu.hash))

.dynsym         0x0000000000400ac8     0x1150
 *(SORT(.dynsym))
 .dynsym        0x0000000000400ac8     0x1150 /data/xiaoning/RealTek/HN120/toolchain/msdk-4.4.7-mips-EL-3.10-u0.9.33-m32t-140827/bin/../lib/gcc/mips-linux-uclibc/4.4.7/../../../../mips-linux-uclibc/lib/crt1.o

.dynstr         0x0000000000401c18      0x809
 *(SORT(.dynstr))
 .dynstr        0x0000000000401c18      0x809 /data/xiaoning/RealTek/HN120/toolchain/msdk-4.4.7-mips-EL-3.10-u0.9.33-m32t-140827/bin/../lib/gcc/mips-linux-uclibc/4.4.7/../../../../mips-linux-uclibc/lib/crt1.o

.gnu.version    0x0000000000402422        0x0
 *(SORT(.gnu.version))
 .gnu.version   0x0000000000000000        0x0 /data/xiaoning/RealTek/HN120/toolchain/msdk-4.4.7-mips-EL-3.10-u0.9.33-m32t-140827/bin/../lib/gcc/mips-linux-uclibc/4.4.7/../../../../mips-linux-uclibc/lib/crt1.o

.gnu.version_d  0x0000000000402424        0x0
 *(SORT(.gnu.version_d))
 .gnu.version_d
                0x0000000000000000        0x0 /data/xiaoning/RealTek/HN120/toolchain/msdk-4.4.7-mips-EL-3.10-u0.9.33-m32t-140827/bin/../lib/gcc/mips-linux-uclibc/4.4.7/../../../../mips-linux-uclibc/lib/crt1.o

.gnu.version_r  0x0000000000402424        0x0
 *(SORT(.gnu.version_r))
 .gnu.version_r
                0x0000000000000000        0x0 /data/xiaoning/RealTek/HN120/toolchain/msdk-4.4.7-mips-EL-3.10-u0.9.33-m32t-140827/bin/../lib/gcc/mips-linux-uclibc/4.4.7/../../../../mips-linux-uclibc/lib/crt1.o

.rel.dyn        0x0000000000402424       0x58
 *(SORT(.rel.init))
 *(SORT(.rel.text) SORT(.rel.text.*) SORT(.rel.gnu.linkonce.t.*))
 *(SORT(.rel.fini))
 *(SORT(.rel.rodata) SORT(.rel.rodata.*) SORT(.rel.gnu.linkonce.r.*))
 *(SORT(.rel.data.rel.ro) SORT(.rel.data.rel.ro.*) SORT(.rel.gnu.linkonce.d.rel.ro.*))
 *(SORT(.rel.data) SORT(.rel.data.*) SORT(.rel.gnu.linkonce.d.*))
 *(SORT(.rel.tdata) SORT(.rel.tdata.*) SORT(.rel.gnu.linkonce.td.*))
 *(SORT(.rel.tbss) SORT(.rel.tbss.*) SORT(.rel.gnu.linkonce.tb.*))
 *(SORT(.rel.ctors))
 *(SORT(.rel.dtors))
 *(SORT(.rel.got))
 *(SORT(.rel.dyn))
 .rel.dyn       0x0000000000402424       0x58 /data/xiaoning/RealTek/HN120/toolchain/msdk-4.4.7-mips-EL-3.10-u0.9.33-m32t-140827/bin/../lib/gcc/mips-linux-uclibc/4.4.7/../../../../mips-linux-uclibc/lib/crt1.o
 *(SORT(.rel.sdata) SORT(.rel.sdata.*) SORT(.rel.gnu.linkonce.s.*))
 *(SORT(.rel.sbss) SORT(.rel.sbss.*) SORT(.rel.gnu.linkonce.sb.*))
 *(SORT(.rel.sdata2) SORT(.rel.sdata2.*) SORT(.rel.gnu.linkonce.s2.*))
 *(SORT(.rel.sbss2) SORT(.rel.sbss2.*) SORT(.rel.gnu.linkonce.sb2.*))
 *(SORT(.rel.bss) SORT(.rel.bss.*) SORT(.rel.gnu.linkonce.b.*))
 .rel.bss       0x0000000000000000        0x0 /data/xiaoning/RealTek/HN120/toolchain/msdk-4.4.7-mips-EL-3.10-u0.9.33-m32t-140827/bin/../lib/gcc/mips-linux-uclibc/4.4.7/../../../../mips-linux-uclibc/lib/crt1.o
                0x000000000040247c                PROVIDE (__rel_iplt_start, .)
 *(SORT(.rel.iplt))
                0x000000000040247c                PROVIDE (__rel_iplt_end, .)
                0x000000000040247c                PROVIDE (__rela_iplt_start, .)
                0x000000000040247c                PROVIDE (__rela_iplt_end, .)

.rela.dyn       0x000000000040247c        0x0
 *(SORT(.rela.init))
 *(SORT(.rela.text) SORT(.rela.text.*) SORT(.rela.gnu.linkonce.t.*))
 *(SORT(.rela.fini))
 *(SORT(.rela.rodata) SORT(.rela.rodata.*) SORT(.rela.gnu.linkonce.r.*))
 *(SORT(.rela.data) SORT(.rela.data.*) SORT(.rela.gnu.linkonce.d.*))
 *(SORT(.rela.tdata) SORT(.rela.tdata.*) SORT(.rela.gnu.linkonce.td.*))
 *(SORT(.rela.tbss) SORT(.rela.tbss.*) SORT(.rela.gnu.linkonce.tb.*))
 *(SORT(.rela.ctors))
 *(SORT(.rela.dtors))
 *(SORT(.rela.got))
 *(SORT(.rela.sdata) SORT(.rela.sdata.*) SORT(.rela.gnu.linkonce.s.*))
 *(SORT(.rela.sbss) SORT(.rela.sbss.*) SORT(.rela.gnu.linkonce.sb.*))
 *(SORT(.rela.sdata2) SORT(.rela.sdata2.*) SORT(.rela.gnu.linkonce.s2.*))
 *(SORT(.rela.sbss2) SORT(.rela.sbss2.*) SORT(.rela.gnu.linkonce.sb2.*))
 *(SORT(.rela.bss) SORT(.rela.bss.*) SORT(.rela.gnu.linkonce.b.*))
                0x000000000040247c                PROVIDE (__rel_iplt_start, .)
                0x000000000040247c                PROVIDE (__rel_iplt_end, .)
                0x000000000040247c                PROVIDE (__rela_iplt_start, .)
 *(SORT(.rela.iplt))
                0x000000000040247c                PROVIDE (__rela_iplt_end, .)

.rel.plt        0x000000000040247c      0x7c8
 *(SORT(.rel.plt))
 .rel.plt       0x000000000040247c      0x7c8 /data/xiaoning/RealTek/HN120/toolchain/msdk-4.4.7-mips-EL-3.10-u0.9.33-m32t-140827/bin/../lib/gcc/mips-linux-uclibc/4.4.7/../../../../mips-linux-uclibc/lib/crt1.o

.rela.plt
 *(SORT(.rela.plt))

.init           0x0000000000402c44       0x48
 *(SORT(.init))
 .init          0x0000000000402c44       0x1c /data/xiaoning/RealTek/HN120/toolchain/msdk-4.4.7-mips-EL-3.10-u0.9.33-m32t-140827/bin/../lib/gcc/mips-linux-uclibc/4.4.7/../../../../mips-linux-uclibc/lib/crti.o
                0x0000000000402c44                _init
 .init          0x0000000000402c60       0x10 /data/xiaoning/RealTek/HN120/toolchain/msdk-4.4.7-mips-EL-3.10-u0.9.33-m32t-140827/bin/../lib/gcc/mips-linux-uclibc/4.4.7/soft-float/el/crtbegin.o
 .init          0x0000000000402c70       0x10 /data/xiaoning/RealTek/HN120/toolchain/msdk-4.4.7-mips-EL-3.10-u0.9.33-m32t-140827/bin/../lib/gcc/mips-linux-uclibc/4.4.7/soft-float/el/crtend.o
 .init          0x0000000000402c80        0xc /data/xiaoning/RealTek/HN120/toolchain/msdk-4.4.7-mips-EL-3.10-u0.9.33-m32t-140827/bin/../lib/gcc/mips-linux-uclibc/4.4.7/../../../../mips-linux-uclibc/lib/crtn.o

.plt            0x0000000000402ca0      0xfb0
 *(SORT(.plt))
 *fill*         0x0000000000402ca0        0x0 
 .plt           0x0000000000402ca0      0xfb0 /data/xiaoning/RealTek/HN120/toolchain/msdk-4.4.7-mips-EL-3.10-u0.9.33-m32t-140827/bin/../lib/gcc/mips-linux-uclibc/4.4.7/../../../../mips-linux-uclibc/lib/crt1.o
                0x0000000000402ca0                _PROCEDURE_LINKAGE_TABLE_
                0x0000000000402cc0                longjmp
                0x0000000000402cd0                strcpy
                0x0000000000402ce0                unsetenv
                0x0000000000402cf0                log
                0x0000000000402d00                sqrt
                0x0000000000402d10                waitpid
                0x0000000000402d20                getrlimit
                0x0000000000402d30                pause
                0x0000000000402d40                ioctl
                0x0000000000402d50                getgid
                0x0000000000402d60                popen
                0x0000000000402d70                sysconf
                0x0000000000402d80                printf
                0x0000000000402d90                utime
                0x0000000000402da0                connect
                0x0000000000402db0                sigemptyset
                0x0000000000402dc0                shmctl
                0x0000000000402dd0                strerror
                0x0000000000402de0                geteuid
                0x0000000000402df0                inet_pton
                0x0000000000402e00                memmove
                0x0000000000402e10                pclose
                0x0000000000402e20                snprintf
                0x0000000000402e30                mknod
                0x0000000000402e40                getgrgid
                0x0000000000402e50                times
                0x0000000000402e60                getenv
                0x0000000000402e70                fchmod
                0x0000000000402e80                getegid
                0x0000000000402e90                setpriority
                0x0000000000402ea0                getpriority
                0x0000000000402eb0                bsearch
                0x0000000000402ec0                usleep
                0x0000000000402ed0                execve
                0x0000000000402ee0                semget
                0x0000000000402ef0                getpagesize
                0x0000000000402f00                getpid
                0x0000000000402f10                qsort
                0x0000000000402f20                fchown
                0x0000000000402f30                fscanf
                0x0000000000402f40                fgets
                0x0000000000402f50                shmat
                0x0000000000402f60                memcpy
                0x0000000000402f70                readlink
                0x0000000000402f80                puts
                0x0000000000402f90                dup2
                0x0000000000402fa0                tcflush
                0x0000000000402fb0                tolower
                0x0000000000402fc0                getuid
                0x0000000000402fd0                semctl
                0x0000000000402fe0                system
                0x0000000000402ff0                feof
                0x0000000000403000                malloc
                0x0000000000403010                isatty
                0x0000000000403020                sleep
                0x0000000000403030                sysinfo
                0x0000000000403040                vsnprintf
                0x0000000000403050                recvfrom
                0x0000000000403060                tcdrain
                0x0000000000403070                strtoul
                0x0000000000403080                gethostbyaddr
                0x0000000000403090                rmdir
                0x00000000004030a0                socket
                0x00000000004030b0                select
                0x00000000004030c0                init_module
                0x00000000004030d0                readdir
                0x00000000004030e0                lchown
                0x00000000004030f0                delete_module
                0x0000000000403100                isspace
                0x0000000000403110                fflush
                0x0000000000403120                ftruncate
                0x0000000000403130                realpath
                0x0000000000403140                putenv
                0x0000000000403150                lseek
                0x0000000000403160                sigaddset
                0x0000000000403170                clearenv
                0x0000000000403180                chown
                0x0000000000403190                strncasecmp
                0x00000000004031a0                setpgid
                0x00000000004031b0                freeaddrinfo
                0x00000000004031c0                __fgetc_unlocked
                0x00000000004031d0                chmod
                0x00000000004031e0                getnameinfo
                0x00000000004031f0                isxdigit
                0x0000000000403200                alarm
                0x0000000000403210                strtol
                0x0000000000403220                pipe
                0x0000000000403230                getpgrp
                0x0000000000403240                uname
                0x0000000000403250                accept
                0x0000000000403260                rename
                0x0000000000403270                strrchr
                0x0000000000403280                setrlimit
                0x0000000000403290                strtod
                0x00000000004032a0                write
                0x00000000004032b0                fstat
                0x00000000004032c0                fprintf
                0x00000000004032d0                kill
                0x00000000004032e0                ctime
                0x00000000004032f0                strcat
                0x0000000000403300                bind
                0x0000000000403310                getmntent_r
                0x0000000000403320                inet_addr
                0x0000000000403330                vprintf
                0x0000000000403340                umount2
                0x0000000000403350                if_nametoindex
                0x0000000000403360                reboot
                0x0000000000403370                chdir
                0x0000000000403380                initgroups
                0x0000000000403390                shmdt
                0x00000000004033a0                endgrent
                0x00000000004033b0                setsockopt
                0x00000000004033c0                shmget
                0x00000000004033d0                cos
                0x00000000004033e0                memchr
                0x00000000004033f0                wait
                0x0000000000403400                umask
                0x0000000000403410                dprintf
                0x0000000000403420                mktime
                0x0000000000403430                lstat
                0x0000000000403440                ferror
                0x0000000000403450                strstr
                0x0000000000403460                unlockpt
                0x0000000000403470                sin
                0x0000000000403480                rand
                0x0000000000403490                setgid
                0x00000000004034a0                atan2
                0x00000000004034b0                signal
                0x00000000004034c0                read
                0x00000000004034d0                openlog
                0x00000000004034e0                closelog
                0x00000000004034f0                strncmp
                0x0000000000403500                sethostname
                0x0000000000403510                __cmsg_nxthdr
                0x0000000000403520                pow
                0x0000000000403530                strncpy
                0x0000000000403540                unlink
                0x0000000000403550                sync
                0x0000000000403560                setenv
                0x0000000000403570                strcasecmp
                0x0000000000403580                sendto
                0x0000000000403590                realloc
                0x00000000004035a0                strtok
                0x00000000004035b0                sigfillset
                0x00000000004035c0                memcmp
                0x00000000004035d0                listen
                0x00000000004035e0                crypt
                0x00000000004035f0                fork
                0x0000000000403600                sscanf
                0x0000000000403610                execv
                0x0000000000403620                setmntent
                0x0000000000403630                isalpha
                0x0000000000403640                sigaction
                0x0000000000403650                endmntent
                0x0000000000403660                killpg
                0x0000000000403670                fread
                0x0000000000403680                strdup
                0x0000000000403690                inet_aton
                0x00000000004036a0                regcomp
                0x00000000004036b0                symlink
                0x00000000004036c0                gettimeofday
                0x00000000004036d0                fopen
                0x00000000004036e0                getopt
                0x00000000004036f0                localtime
                0x0000000000403700                memset
                0x0000000000403710                fnmatch
                0x0000000000403720                srand
                0x0000000000403730                clearerr
                0x0000000000403740                fclose
                0x0000000000403750                grantpt
                0x0000000000403760                inet_ntoa
                0x0000000000403770                getppid
                0x0000000000403780                tcgetattr
                0x0000000000403790                regexec
                0x00000000004037a0                time
                0x00000000004037b0                opendir
                0x00000000004037c0                getgroups
                0x00000000004037d0                isgraph
                0x00000000004037e0                poll
                0x00000000004037f0                syslog
                0x0000000000403800                isalnum
                0x0000000000403810                exp
                0x0000000000403820                mount
                0x0000000000403830                strcmp
                0x0000000000403840                ttyname
                0x0000000000403850                getpwuid
                0x0000000000403860                __h_errno_location
                0x0000000000403870                dup
                0x0000000000403880                getcwd
                0x0000000000403890                gethostbyname
                0x00000000004038a0                strsignal
                0x00000000004038b0                getpwnam
                0x00000000004038c0                getservbyname
                0x00000000004038d0                fgetc
                0x00000000004038e0                sprintf
                0x00000000004038f0                difftime
                0x0000000000403900                strcspn
                0x0000000000403910                regerror
                0x0000000000403920                umount
                0x0000000000403930                vfork
                0x0000000000403940                strsep
                0x0000000000403950                fputc
                0x0000000000403960                hstrerror
                0x0000000000403970                getaddrinfo
                0x0000000000403980                strftime
                0x0000000000403990                stat
                0x00000000004039a0                access
                0x00000000004039b0                strptime
                0x00000000004039c0                freopen
                0x00000000004039d0                tcgetpgrp
                0x00000000004039e0                __errno_location
                0x00000000004039f0                link
                0x0000000000403a00                semop
                0x0000000000403a10                exit
                0x0000000000403a20                stime
                0x0000000000403a30                klogctl
                0x0000000000403a40                inet_ntop
                0x0000000000403a50                atoi
                0x0000000000403a60                fileno
                0x0000000000403a70                vsyslog
                0x0000000000403a80                _setjmp
                0x0000000000403a90                _exit
                0x0000000000403aa0                strspn
                0x0000000000403ab0                strlen
                0x0000000000403ac0                open
                0x0000000000403ad0                toupper
                0x0000000000403ae0                ptsname_r
                0x0000000000403af0                regfree
                0x0000000000403b00                div
                0x0000000000403b10                strchr
                0x0000000000403b20                fputs
                0x0000000000403b30                execvp
                0x0000000000403b40                setsid
                0x0000000000403b50                closedir
                0x0000000000403b60                vasprintf
                0x0000000000403b70                recvmsg
                0x0000000000403b80                strchrnul
                0x0000000000403b90                fcntl
                0x0000000000403ba0                setuid
                0x0000000000403bb0                tcsetattr
                0x0000000000403bc0                mkdir
                0x0000000000403bd0                close
                0x0000000000403be0                vfprintf
                0x0000000000403bf0                strpbrk
                0x0000000000403c00                tcsetpgrp
                0x0000000000403c10                raise
                0x0000000000403c20                free
                0x0000000000403c30                sigprocmask
                0x0000000000403c40                __fputc_unlocked

.iplt
 *(SORT(.iplt))

.text           0x0000000000403c50    0x34368
                0x0000000000403c50                _ftext = .
 *(SORT(.text.unlikely) SORT(.text.*_unlikely))
 *(SORT(.text.exit) SORT(.text.exit.*))
 *(SORT(.text.startup) SORT(.text.startup.*))
 *(SORT(.text.hot) SORT(.text.hot.*))
 *(SORT(.text) SORT(.stub) SORT(.text.*) SORT(.gnu.linkonce.t.*))
 .text          0x0000000000403c50       0x60 /data/xiaoning/RealTek/HN120/toolchain/msdk-4.4.7-mips-EL-3.10-u0.9.33-m32t-140827/bin/../lib/gcc/mips-linux-uclibc/4.4.7/../../../../mips-linux-uclibc/lib/crt1.o
                0x0000000000403c50                __start
 .text          0x0000000000403cb0      0x110 /data/xiaoning/RealTek/HN120/toolchain/msdk-4.4.7-mips-EL-3.10-u0.9.33-m32t-140827/bin/../lib/gcc/mips-linux-uclibc/4.4.7/soft-float/el/crtbegin.o
 .text.stub.3   0x0000000000403dc0       0x10 linker stubs
                0x0000000000403dc8                .pic.__bswapsi2
 .text          0x0000000000403dd0       0x30 /data/xiaoning/RealTek/HN120/toolchain/msdk-4.4.7-mips-EL-3.10-u0.9.33-m32t-140827/bin/../lib/gcc/mips-linux-uclibc/4.4.7/soft-float/el/libgcc.a(_bswapsi2.o)
                0x0000000000403dd0                __bswapsi2
 .text.stub.6   0x0000000000403e00       0x10 linker stubs
                0x0000000000403e08                .pic.__fixunsdfsi
 .text          0x0000000000403e10       0xb0 /data/xiaoning/RealTek/HN120/toolchain/msdk-4.4.7-mips-EL-3.10-u0.9.33-m32t-140827/bin/../lib/gcc/mips-linux-uclibc/4.4.7/soft-float/el/libgcc.a(_fixunsdfsi.o)
                0x0000000000403e10                __fixunsdfsi
 .text.stub.8   0x0000000000403ec0       0x10 linker stubs
                0x0000000000403ec8                .pic.__udivdi3
 .text          0x0000000000403ed0      0x430 /data/xiaoning/RealTek/HN120/toolchain/msdk-4.4.7-mips-EL-3.10-u0.9.33-m32t-140827/bin/../lib/gcc/mips-linux-uclibc/4.4.7/soft-float/el/libgcc.a(_udivdi3.o)
                0x0000000000403ed0                __udivdi3
 .text.stub.7   0x0000000000404300       0x10 linker stubs
                0x0000000000404308                .pic.__adddf3
 .text          0x0000000000404310      0x850 /data/xiaoning/RealTek/HN120/toolchain/msdk-4.4.7-mips-EL-3.10-u0.9.33-m32t-140827/bin/../lib/gcc/mips-linux-uclibc/4.4.7/soft-float/el/libgcc.a(adddf3.o)
                0x0000000000404310                __adddf3
 .text.stub.11  0x0000000000404b60       0x10 linker stubs
                0x0000000000404b68                .pic.__divdf3
 .text          0x0000000000404b70      0x660 /data/xiaoning/RealTek/HN120/toolchain/msdk-4.4.7-mips-EL-3.10-u0.9.33-m32t-140827/bin/../lib/gcc/mips-linux-uclibc/4.4.7/soft-float/el/libgcc.a(divdf3.o)
                0x0000000000404b70                __divdf3
 .text.stub.1   0x00000000004051d0       0x10 linker stubs
                0x00000000004051d8                .pic.__eqdf2
 .text          0x00000000004051e0       0x90 /data/xiaoning/RealTek/HN120/toolchain/msdk-4.4.7-mips-EL-3.10-u0.9.33-m32t-140827/bin/../lib/gcc/mips-linux-uclibc/4.4.7/soft-float/el/libgcc.a(eqdf2.o)
                0x00000000004051e0                __eqdf2
                0x00000000004051e0                __nedf2
 .text.stub.2   0x0000000000405270       0x10 linker stubs
                0x0000000000405278                .pic.__gtdf2
 .text          0x0000000000405280      0x110 /data/xiaoning/RealTek/HN120/toolchain/msdk-4.4.7-mips-EL-3.10-u0.9.33-m32t-140827/bin/../lib/gcc/mips-linux-uclibc/4.4.7/soft-float/el/libgcc.a(gedf2.o)
                0x0000000000405280                __gtdf2
                0x0000000000405280                __gedf2
 .text.stub.5   0x0000000000405390       0x10 linker stubs
                0x0000000000405398                .pic.__ltdf2
 .text          0x00000000004053a0      0x110 /data/xiaoning/RealTek/HN120/toolchain/msdk-4.4.7-mips-EL-3.10-u0.9.33-m32t-140827/bin/../lib/gcc/mips-linux-uclibc/4.4.7/soft-float/el/libgcc.a(ledf2.o)
                0x00000000004053a0                __ltdf2
                0x00000000004053a0                __ledf2
 .text.stub.12  0x00000000004054b0       0x10 linker stubs
                0x00000000004054b8                .pic.__muldf3
 .text          0x00000000004054c0      0x440 /data/xiaoning/RealTek/HN120/toolchain/msdk-4.4.7-mips-EL-3.10-u0.9.33-m32t-140827/bin/../lib/gcc/mips-linux-uclibc/4.4.7/soft-float/el/libgcc.a(muldf3.o)
                0x00000000004054c0                __muldf3
 .text.stub.13  0x0000000000405900       0x10 linker stubs
                0x0000000000405908                .pic.__subdf3
 .text          0x0000000000405910      0x870 /data/xiaoning/RealTek/HN120/toolchain/msdk-4.4.7-mips-EL-3.10-u0.9.33-m32t-140827/bin/../lib/gcc/mips-linux-uclibc/4.4.7/soft-float/el/libgcc.a(subdf3.o)
                0x0000000000405910                __subdf3
 .text.stub.10  0x0000000000406180       0x10 linker stubs
                0x0000000000406188                .pic.__fixdfsi
 .text          0x0000000000406190       0x80 /data/xiaoning/RealTek/HN120/toolchain/msdk-4.4.7-mips-EL-3.10-u0.9.33-m32t-140827/bin/../lib/gcc/mips-linux-uclibc/4.4.7/soft-float/el/libgcc.a(fixdfsi.o)
                0x0000000000406190                __fixdfsi
 .text.stub.4   0x0000000000406210       0x10 linker stubs
                0x0000000000406218                .pic.__floatsidf
 .text          0x0000000000406220       0x80 /data/xiaoning/RealTek/HN120/toolchain/msdk-4.4.7-mips-EL-3.10-u0.9.33-m32t-140827/bin/../lib/gcc/mips-linux-uclibc/4.4.7/soft-float/el/libgcc.a(floatsidf.o)
                0x0000000000406220                __floatsidf
 .text.stub.9   0x00000000004062a0       0x10 linker stubs
                0x00000000004062a8                .pic.__floatunsidf
 .text          0x00000000004062b0       0x60 /data/xiaoning/RealTek/HN120/toolchain/msdk-4.4.7-mips-EL-3.10-u0.9.33-m32t-140827/bin/../lib/gcc/mips-linux-uclibc/4.4.7/soft-float/el/libgcc.a(floatunsidf.o)
                0x00000000004062b0                __floatunsidf
 .text          0x0000000000406310       0x50 /data/xiaoning/RealTek/HN120/toolchain/msdk-4.4.7-mips-EL-3.10-u0.9.33-m32t-140827/bin/../lib/gcc/mips-linux-uclibc/4.4.7/soft-float/el/crtend.o
 .text.bb_show_usage
                0x0000000000406360       0x10 libbb/lib.a(appletlib.o)
                0x0000000000406360                bb_show_usage
 .text.full_write2_str
                0x0000000000406370       0x28 libbb/lib.a(appletlib.o)
 .text.applet_name_compare
                0x0000000000406398       0x30 libbb/lib.a(appletlib.o)
 .text.run_applet_no_and_exit
                0x00000000004063c8      0x120 libbb/lib.a(appletlib.o)
                0x00000000004063c8                run_applet_no_and_exit
 .text.lbb_prepare
                0x00000000004064e8       0x30 libbb/lib.a(appletlib.o)
                0x00000000004064e8                lbb_prepare
 .text.find_applet_by_name
                0x0000000000406518       0x50 libbb/lib.a(appletlib.o)
                0x0000000000406518                find_applet_by_name
 .text.run_applet_and_exit
                0x0000000000406568      0x194 libbb/lib.a(appletlib.o)
                0x0000000000406568                run_applet_and_exit
 .text.main     0x00000000004066fc       0x88 libbb/lib.a(appletlib.o)
                0x00000000004066fc                main
 .text.bb_basename
                0x0000000000406784       0x34 libbb/lib.a(bb_basename.o)
                0x0000000000406784                bb_basename
 .text.bb_error_msg_and_die
                0x00000000004067b8       0x30 libbb/lib.a(error_msg_and_die.o)
                0x00000000004067b8                bb_error_msg_and_die
 .text.full_write
                0x00000000004067e8       0x78 libbb/lib.a(full_write.o)
                0x00000000004067e8                full_write
 .text.bb_get_last_path_component_nostrip
                0x0000000000406860       0x4c libbb/lib.a(get_last_path_component.o)
                0x0000000000406860                bb_get_last_path_component_nostrip
 .text.bb_get_last_path_component_strip
                0x00000000004068ac       0x5c libbb/lib.a(get_last_path_component.o)
                0x00000000004068ac                bb_get_last_path_component_strip
 .text.last_char_is
                0x0000000000406908       0x58 libbb/lib.a(last_char_is.o)
                0x0000000000406908                last_char_is
 .text.safe_write
                0x0000000000406960       0x78 libbb/lib.a(safe_write.o)
                0x0000000000406960                safe_write
 .text.bb_verror_msg
                0x00000000004069d8      0x1cc libbb/lib.a(verror_msg.o)
                0x00000000004069d8                bb_verror_msg
 .text.xfunc_die
                0x0000000000406ba4       0x48 libbb/lib.a(xfunc_die.o)
                0x0000000000406ba4                xfunc_die
 .text.bb_xioctl
                0x0000000000406bec       0x2c libbb/lib.a(xfuncs_printf.o)
                0x0000000000406bec                bb_xioctl
 .text.bb_ioctl_or_warn
                0x0000000000406c18       0x34 libbb/lib.a(xfuncs_printf.o)
                0x0000000000406c18                bb_ioctl_or_warn
 .text.ioctl_or_perror_and_die
                0x0000000000406c4c       0x5c libbb/lib.a(xfuncs_printf.o)
                0x0000000000406c4c                ioctl_or_perror_and_die
 .text.xstat    0x0000000000406ca8       0x38 libbb/lib.a(xfuncs_printf.o)
                0x0000000000406ca8                xstat
 .text.xsendto  0x0000000000406ce0       0x38 libbb/lib.a(xfuncs_printf.o)
                0x0000000000406ce0                xsendto
 .text.xlisten  0x0000000000406d18       0x2c libbb/lib.a(xfuncs_printf.o)
                0x0000000000406d18                xlisten
 .text.xbind    0x0000000000406d44       0x2c libbb/lib.a(xfuncs_printf.o)
                0x0000000000406d44                xbind
 .text.xsocket  0x0000000000406d70       0x2c libbb/lib.a(xfuncs_printf.o)
                0x0000000000406d70                xsocket
 .text.xopendir
                0x0000000000406d9c       0x30 libbb/lib.a(xfuncs_printf.o)
                0x0000000000406d9c                xopendir
 .text.warn_opendir
                0x0000000000406dcc       0x38 libbb/lib.a(xfuncs_printf.o)
                0x0000000000406dcc                warn_opendir
 .text.xchdir   0x0000000000406e04       0x30 libbb/lib.a(xfuncs_printf.o)
                0x0000000000406e04                xchdir
 .text.xsetuid  0x0000000000406e34       0x2c libbb/lib.a(xfuncs_printf.o)
                0x0000000000406e34                xsetuid
 .text.xsetgid  0x0000000000406e60       0x2c libbb/lib.a(xfuncs_printf.o)
                0x0000000000406e60                xsetgid
 .text.xsetenv  0x0000000000406e8c       0x2c libbb/lib.a(xfuncs_printf.o)
                0x0000000000406e8c                xsetenv
 .text.xasprintf
                0x0000000000406eb8       0x4c libbb/lib.a(xfuncs_printf.o)
                0x0000000000406eb8                xasprintf
 .text.bb_putchar
                0x0000000000406f04       0x48 libbb/lib.a(xfuncs_printf.o)
                0x0000000000406f04                bb_putchar
 .text.die_if_ferror
                0x0000000000406f4c       0x30 libbb/lib.a(xfuncs_printf.o)
                0x0000000000406f4c                die_if_ferror
 .text.die_if_ferror_stdout
                0x0000000000406f7c       0x18 libbb/lib.a(xfuncs_printf.o)
                0x0000000000406f7c                die_if_ferror_stdout
 .text.xlseek   0x0000000000406f94       0x58 libbb/lib.a(xfuncs_printf.o)
                0x0000000000406f94                xlseek
 .text.xwrite   0x0000000000406fec       0x40 libbb/lib.a(xfuncs_printf.o)
                0x0000000000406fec                xwrite
 .text.xdup2    0x000000000040702c       0x34 libbb/lib.a(xfuncs_printf.o)
                0x000000000040702c                xdup2
 .text.xmove_fd
                0x0000000000407060       0x40 libbb/lib.a(xfuncs_printf.o)
                0x0000000000407060                xmove_fd
 .text.xunlink  0x00000000004070a0       0x30 libbb/lib.a(xfuncs_printf.o)
                0x00000000004070a0                xunlink
 .text.open3_or_warn
                0x00000000004070d0       0x40 libbb/lib.a(xfuncs_printf.o)
                0x00000000004070d0                open3_or_warn
 .text.open_or_warn
                0x0000000000407110        0xc libbb/lib.a(xfuncs_printf.o)
                0x0000000000407110                open_or_warn
 .text.xopen3   0x000000000040711c       0x38 libbb/lib.a(xfuncs_printf.o)
                0x000000000040711c                xopen3
 .text.xopen    0x0000000000407154        0xc libbb/lib.a(xfuncs_printf.o)
                0x0000000000407154                xopen
 .text.xfopen   0x0000000000407160       0x38 libbb/lib.a(xfuncs_printf.o)
                0x0000000000407160                xfopen
 .text.xstrdup  0x0000000000407198       0x38 libbb/lib.a(xfuncs_printf.o)
                0x0000000000407198                xstrdup
 .text.xrealloc
                0x00000000004071d0       0x3c libbb/lib.a(xfuncs_printf.o)
                0x00000000004071d0                xrealloc
 .text.xmalloc  0x000000000040720c       0x3c libbb/lib.a(xfuncs_printf.o)
                0x000000000040720c                xmalloc
 .text.xstrndup
                0x0000000000407248       0x64 libbb/lib.a(xfuncs_printf.o)
                0x0000000000407248                xstrndup
 .text.xzalloc  0x00000000004072ac       0x3c libbb/lib.a(xfuncs_printf.o)
                0x00000000004072ac                xzalloc
 .text.malloc_or_warn
                0x00000000004072e8       0x44 libbb/lib.a(xfuncs_printf.o)
                0x00000000004072e8                malloc_or_warn
 .text.bb_full_fd_action
                0x000000000040732c      0x120 libbb/lib.a(copyfd.o)
 .text.bb_copyfd_eof
                0x000000000040744c        0xc libbb/lib.a(copyfd.o)
                0x000000000040744c                bb_copyfd_eof
 .text.bb_copyfd_size
                0x0000000000407458       0x18 libbb/lib.a(copyfd.o)
                0x0000000000407458                bb_copyfd_size
 .text.bb_error_msg
                0x0000000000407470       0x34 libbb/lib.a(error_msg.o)
                0x0000000000407470                bb_error_msg
 .text.bb_perror_msg
                0x00000000004074a4       0x64 libbb/lib.a(perror_msg.o)
                0x00000000004074a4                bb_perror_msg
 .text.bb_simple_perror_msg
                0x0000000000407508       0x14 libbb/lib.a(perror_msg.o)
                0x0000000000407508                bb_simple_perror_msg
 .text.bb_perror_msg_and_die
                0x000000000040751c       0x5c libbb/lib.a(perror_msg_and_die.o)
                0x000000000040751c                bb_perror_msg_and_die
 .text.bb_simple_perror_msg_and_die
                0x0000000000407578       0x18 libbb/lib.a(perror_msg_and_die.o)
                0x0000000000407578                bb_simple_perror_msg_and_die
 .text.open_zipped
                0x0000000000407590        0xc libbb/lib.a(read.o)
                0x0000000000407590                open_zipped
 .text.safe_read
                0x000000000040759c       0x78 libbb/lib.a(read.o)
                0x000000000040759c                safe_read
 .text.full_read
                0x0000000000407614       0x80 libbb/lib.a(read.o)
                0x0000000000407614                full_read
 .text.xmalloc_read
                0x0000000000407694      0x138 libbb/lib.a(read.o)
                0x0000000000407694                xmalloc_read
 .text.xmalloc_open_zipped_read_close
                0x00000000004077cc       0x74 libbb/lib.a(read.o)
                0x00000000004077cc                xmalloc_open_zipped_read_close
 .text.read_close
                0x0000000000407840       0x3c libbb/lib.a(read.o)
                0x0000000000407840                read_close
 .text.open_read_close
                0x000000000040787c       0x4c libbb/lib.a(read.o)
                0x000000000040787c                open_read_close
 .text.xread    0x00000000004078c8       0x40 libbb/lib.a(read.o)
                0x00000000004078c8                xread
 .text.nonblock_safe_read
                0x0000000000407908       0xa8 libbb/lib.a(read.o)
                0x0000000000407908                nonblock_safe_read
 .text.safe_poll
                0x00000000004079b0       0xa0 libbb/lib.a(safe_poll.o)
                0x00000000004079b0                safe_poll
 .text.alarm_handler
                0x0000000000407a50       0x3c loginutils/lib.a(login.o)
 .text.login_main
                0x0000000000407a8c      0x5c8 loginutils/lib.a(login.o)
                0x0000000000407a8c                login_main
 .text.order_dep_list
                0x0000000000408054       0xbc modutils/lib.a(depmod.o)
 .text.xfreopen_write
                0x0000000000408110       0x44 modutils/lib.a(depmod.o)
 .text.parse_module
                0x0000000000408154      0x210 modutils/lib.a(depmod.o)
 .text.depmod_main
                0x0000000000408364      0x2d0 modutils/lib.a(depmod.o)
                0x0000000000408364                depmod_main
 .text.insmod_main
                0x0000000000408634       0x74 modutils/lib.a(insmod.o)
                0x0000000000408634                insmod_main
 .text.lsmod_main
                0x00000000004086a8      0x12c modutils/lib.a(lsmod.o)
                0x00000000004086a8                lsmod_main
 .text.add_option
                0x00000000004087d4       0x70 modutils/lib.a(modprobe.o)
 .text.read_config
                0x0000000000408844       0x38 modutils/lib.a(modprobe.o)
 .text.config_file_action
                0x000000000040887c      0x1d0 modutils/lib.a(modprobe.o)
 .text.do_modprobe
                0x0000000000408a4c      0x308 modutils/lib.a(modprobe.o)
 .text.modprobe_main
                0x0000000000408d54      0x2dc modutils/lib.a(modprobe.o)
                0x0000000000408d54                modprobe_main
 .text.bb_delete_module
                0x0000000000409030        0x8 modutils/lib.a(modutils.o)
                0x0000000000409030                bb_delete_module
 .text.bb_init_module
                0x0000000000409038       0x7c modutils/lib.a(modutils.o)
                0x0000000000409038                bb_init_module
 .text.parse_cmdline_module_options
                0x00000000004090b4       0xbc modutils/lib.a(modutils.o)
                0x00000000004090b4                parse_cmdline_module_options
 .text.moderror
                0x0000000000409170       0x88 modutils/lib.a(modutils.o)
                0x0000000000409170                moderror
 .text.filename2modname
                0x00000000004091f8       0x9c modutils/lib.a(modutils.o)
                0x00000000004091f8                filename2modname
 .text.string_to_llist
                0x0000000000409294       0x8c modutils/lib.a(modutils.o)
                0x0000000000409294                string_to_llist
 .text.llist_find
                0x0000000000409320       0x50 modutils/lib.a(modutils.o)
                0x0000000000409320                llist_find
 .text.rmmod_main
                0x0000000000409370      0x118 modutils/lib.a(rmmod.o)
                0x0000000000409370                rmmod_main
 .text.do_sethostname
                0x0000000000409488       0xd0 networking/lib.a(hostname.o)
 .text.hostname_main
                0x0000000000409558      0x16c networking/lib.a(hostname.o)
                0x0000000000409558                hostname_main
 .text.ifconfig_main
                0x00000000004096c4      0x514 networking/lib.a(ifconfig.o)
                0x00000000004096c4                ifconfig_main
 .text.get_afntype
                0x0000000000409bd8       0x28 networking/lib.a(interface.o)
 .text.hexchar2int
                0x0000000000409c00       0x30 networking/lib.a(interface.o)
 .text.ether_input
                0x0000000000409c30      0x104 networking/lib.a(interface.o)
 .text.get_hwntype
                0x0000000000409d34       0x2c networking/lib.a(interface.o)
                0x0000000000409d34                get_hwntype
 .text.add_interface
                0x0000000000409d60       0xb8 networking/lib.a(interface.o)
 .text.if_readconf
                0x0000000000409e18       0xf4 networking/lib.a(interface.o)
 .text.if_readlist_proc
                0x0000000000409f0c      0x30c networking/lib.a(interface.o)
 .text.do_if_fetch
                0x000000000040a218      0x364 networking/lib.a(interface.o)
 .text.print_bytes_scaled
                0x000000000040a57c       0x98 networking/lib.a(interface.o)
 .text.UNSPEC_print
                0x000000000040a614       0xa8 networking/lib.a(interface.o)
 .text.UNSPEC_sprint
                0x000000000040a6bc       0x30 networking/lib.a(interface.o)
 .text.INET6_input
                0x000000000040a6ec        0x8 networking/lib.a(interface.o)
 .text.INET_input
                0x000000000040a6f4        0xc networking/lib.a(interface.o)
 .text.INET_sprint
                0x000000000040a700       0x70 networking/lib.a(interface.o)
 .text.INET6_sprint
                0x000000000040a770       0x6c networking/lib.a(interface.o)
 .text.ife_print
                0x000000000040a7dc      0x638 networking/lib.a(interface.o)
 .text.display_interfaces
                0x000000000040ae14       0xf8 networking/lib.a(interface.o)
                0x000000000040ae14                display_interfaces
 .text.ether_print
                0x000000000040af0c       0x68 networking/lib.a(interface.o)
 .text.ip_main  0x000000000040af74       0x60 networking/lib.a(ip.o)
                0x000000000040af74                ip_main
 .text.ip_print_help
                0x000000000040afd4       0x10 networking/lib.a(ip.o)
 .text.sendping_tail
                0x000000000040afe4      0x134 networking/lib.a(ping.o)
 .text.sendping6
                0x000000000040b118       0xa8 networking/lib.a(ping.o)
 .text.sendping4
                0x000000000040b1c0      0x114 networking/lib.a(ping.o)
 .text.unpack_tail
                0x000000000040b2d4      0x184 networking/lib.a(ping.o)
 .text.ping6    0x000000000040b458      0x450 networking/lib.a(ping.o)
 .text.ping4    0x000000000040b8a8      0x2b4 networking/lib.a(ping.o)
 .text.print_stats_and_exit
                0x000000000040bb5c      0x154 networking/lib.a(ping.o)
 .text.ping_main
                0x000000000040bcb0      0x1b8 networking/lib.a(ping.o)
                0x000000000040bcb0                ping_main
 .text.ping6_main
                0x000000000040be68       0x1c networking/lib.a(ping.o)
                0x000000000040be68                ping6_main
 .text.set_flags
                0x000000000040be84       0x4c networking/lib.a(route.o)
 .text.kw_lookup
                0x000000000040bed0       0xa8 networking/lib.a(route.o)
 .text.INET6_displayroutes
                0x000000000040bf78      0x264 networking/lib.a(route.o)
 .text.bb_displayroutes
                0x000000000040c1dc      0x23c networking/lib.a(route.o)
                0x000000000040c1dc                bb_displayroutes
 .text.route_main
                0x000000000040c418      0x7c8 networking/lib.a(route.o)
                0x000000000040c418                route_main
 .text.make_new_session
                0x000000000040cbe0      0x208 networking/lib.a(telnetd.o)
 .text.free_session
                0x000000000040cde8       0xb8 networking/lib.a(telnetd.o)
 .text.telnetd_main
                0x000000000040cea0      0x770 networking/lib.a(telnetd.o)
                0x000000000040cea0                telnetd_main
 .text.handle_sigchld
                0x000000000040d610       0x64 networking/lib.a(telnetd.o)
 .text.tftp_main
                0x000000000040d674      0x59c networking/lib.a(tftp.o)
                0x000000000040d674                tftp_main
 .text.in_cksum
                0x000000000040dc10       0x54 networking/lib.a(traceroute.o)
 .text.freehostinfo
                0x000000000040dc64       0x34 networking/lib.a(traceroute.o)
 .text.ifaddrlist
                0x000000000040dc98      0x1f4 networking/lib.a(traceroute.o)
 .text.gethostinfo
                0x000000000040de8c      0x11c networking/lib.a(traceroute.o)
 .text.setsin   0x000000000040dfa8       0x1c networking/lib.a(traceroute.o)
 .text.findsaddr
                0x000000000040dfc4      0x1bc networking/lib.a(traceroute.o)
 .text.traceroute_main
                0x000000000040e180      0xc88 networking/lib.a(traceroute.o)
                0x000000000040e180                traceroute_main
 .text.ethctl_unlock
                0x000000000040ee08       0x14 networking/lib.a(vconfig.o)
                0x000000000040ee08                ethctl_unlock
 .text.xfind_str
                0x000000000040ee1c       0x60 networking/lib.a(vconfig.o)
 .text.ethctl_lock
                0x000000000040ee7c       0xc4 networking/lib.a(vconfig.o)
                0x000000000040ee7c                ethctl_lock
 .text.vconfig_main
                0x000000000040ef40      0x690 networking/lib.a(vconfig.o)
                0x000000000040ef40                vconfig_main
 .text.ip_parse_common_args
                0x000000000040f5d0      0x158 networking/libiproute/lib.a(ip_parse_common_args.o)
                0x000000000040f5d0                ip_parse_common_args
 .text.do_get_ioctl
                0x000000000040f728       0x7c networking/libiproute/lib.a(iptunnel.o)
 .text.parse_args
                0x000000000040f7a4      0x768 networking/libiproute/lib.a(iptunnel.o)
 .text.do_add_ioctl
                0x000000000040ff0c       0xb0 networking/libiproute/lib.a(iptunnel.o)
 .text.do_add   0x000000000040ffbc       0xac networking/libiproute/lib.a(iptunnel.o)
 .text.do_del_ioctl
                0x0000000000410068       0x78 networking/libiproute/lib.a(iptunnel.o)
 .text.print_tunnel
                0x00000000004100e0      0x33c networking/libiproute/lib.a(iptunnel.o)
 .text.do_tunnels_list
                0x000000000041041c      0x2f0 networking/libiproute/lib.a(iptunnel.o)
 .text.do_iptunnel
                0x000000000041070c      0x1bc networking/libiproute/lib.a(iptunnel.o)
                0x000000000041070c                do_iptunnel
 .text.rtnl_tab_initialize
                0x00000000004108c8       0xe8 networking/libiproute/lib.a(rt_names.o)
 .text.rtnl_rtdsfield_initialize
                0x00000000004109b0       0x5c networking/libiproute/lib.a(rt_names.o)
 .text.rtnl_dsfield_a2n
                0x0000000000410a0c      0x114 networking/libiproute/lib.a(rt_names.o)
                0x0000000000410a0c                rtnl_dsfield_a2n
 .text.rtnl_dsfield_n2a
                0x0000000000410b20       0x7c networking/libiproute/lib.a(rt_names.o)
                0x0000000000410b20                rtnl_dsfield_n2a
 .text.rt_addr_n2a
                0x0000000000410b9c       0x38 networking/libiproute/lib.a(utils.o)
                0x0000000000410b9c                rt_addr_n2a
 .text.format_host
                0x0000000000410bd4        0x8 networking/libiproute/lib.a(utils.o)
                0x0000000000410bd4                format_host
 .text.duparg2  0x0000000000410bdc       0x20 networking/libiproute/lib.a(utils.o)
                0x0000000000410bdc                duparg2
 .text.invarg   0x0000000000410bfc       0x20 networking/libiproute/lib.a(utils.o)
                0x0000000000410bfc                invarg
 .text.incomplete_command
                0x0000000000410c1c       0x14 networking/libiproute/lib.a(utils.o)
                0x0000000000410c1c                incomplete_command
 .text.get_addr_1
                0x0000000000410c30      0x140 networking/libiproute/lib.a(utils.o)
                0x0000000000410c30                get_addr_1
 .text.get_addr32
                0x0000000000410d70       0x54 networking/libiproute/lib.a(utils.o)
                0x0000000000410d70                get_addr32
 .text.get_unsigned
                0x0000000000410dc4       0x74 networking/libiproute/lib.a(utils.o)
                0x0000000000410dc4                get_unsigned
 .text.free_main
                0x0000000000410e38      0x1d4 procps/lib.a(free.o)
                0x0000000000410e38                free_main
 .text.kill_main
                0x000000000041100c      0x398 procps/lib.a(kill.o)
                0x000000000041100c                kill_main
 .text.ps_main  0x00000000004113a4      0x118 procps/lib.a(ps.o)
                0x00000000004113a4                ps_main
 .text.renice_main
                0x00000000004114bc      0x1f0 procps/lib.a(renice.o)
                0x00000000004114bc                renice_main
 .text.pid_sort
                0x00000000004116ac       0x10 procps/lib.a(top.o)
 .text.mem_sort
                0x00000000004116bc       0x24 procps/lib.a(top.o)
 .text.pcpu_sort
                0x00000000004116e0       0x10 procps/lib.a(top.o)
 .text.time_sort
                0x00000000004116f0       0x24 procps/lib.a(top.o)
 .text.mult_lvl_cmp
                0x0000000000411714       0x68 procps/lib.a(top.o)
 .text.topmem_sort
                0x000000000041177c       0x48 procps/lib.a(top.o)
 .text.reset_term
                0x00000000004117c4       0x10 procps/lib.a(top.o)
 .text.fmt_100percent_8
                0x00000000004117d4       0xc4 procps/lib.a(top.o)
 .text.display_process_list
                0x0000000000411898      0x728 procps/lib.a(top.o)
 .text.grab_number
                0x0000000000411fc0       0x68 procps/lib.a(top.o)
 .text.ulltoa6_and_space
                0x0000000000412028       0x34 procps/lib.a(top.o)
 .text.display_topmem_process_list
                0x000000000041205c      0x548 procps/lib.a(top.o)
 .text.clearmems
                0x00000000004125a4       0x40 procps/lib.a(top.o)
 .text.read_cpu_jiffy
                0x00000000004125e4      0x188 procps/lib.a(top.o)
 .text.get_jiffy_counts
                0x000000000041276c      0x148 procps/lib.a(top.o)
 .text.do_stats
                0x00000000004128b4       0xf8 procps/lib.a(top.o)
 .text.top_main
                0x00000000004129ac      0x62c procps/lib.a(top.o)
                0x00000000004129ac                top_main
 .text.sig_catcher
                0x0000000000412fd8       0x18 procps/lib.a(top.o)
 .text.uptime_main
                0x0000000000412ff0      0x150 procps/lib.a(uptime.o)
                0x0000000000412ff0                uptime_main
 .text.isdigit_str9
                0x0000000000413140       0x30 shell/lib.a(ash.o)
 .text.stunalloc
                0x0000000000413170       0x24 shell/lib.a(ash.o)
 .text.setstackmark
                0x0000000000413194       0x30 shell/lib.a(ash.o)
 .text.prefix   0x00000000004131c4       0x30 shell/lib.a(ash.o)
 .text.is_number
                0x00000000004131f4       0x2c shell/lib.a(ash.o)
 .text.varcmp   0x0000000000413220       0x4c shell/lib.a(ash.o)
 .text.varequal
                0x000000000041326c       0x20 shell/lib.a(ash.o)
 .text.hashvar  0x000000000041328c       0x50 shell/lib.a(ash.o)
 .text.vpcmp    0x00000000004132dc       0x10 shell/lib.a(ash.o)
 .text.findvar  0x00000000004132ec       0x54 shell/lib.a(ash.o)
 .text.setprompt
                0x0000000000413340       0x58 shell/lib.a(ash.o)
 .text.set_curjob
                0x0000000000413398       0x80 shell/lib.a(ash.o)
 .text.jobno    0x0000000000413418       0x24 shell/lib.a(ash.o)
 .text.getstatus
                0x000000000041343c       0x6c shell/lib.a(ash.o)
 .text.need_to_remember
                0x00000000004134a8       0x40 shell/lib.a(ash.o)
 .text.is_hidden_fd
                0x00000000004134e8       0x78 shell/lib.a(ash.o)
 .text.esclen   0x0000000000413560       0x2c shell/lib.a(ash.o)
 .text.falsecmd
                0x000000000041358c        0x8 shell/lib.a(ash.o)
 .text.truecmd  0x0000000000413594        0x8 shell/lib.a(ash.o)
 .text.bltincmd
                0x000000000041359c        0xc shell/lib.a(ash.o)
 .text.pungetc  0x00000000004135a8       0x24 shell/lib.a(ash.o)
 .text.raise_exception
                0x00000000004135cc       0x30 shell/lib.a(ash.o)
 .text.lookupvar
                0x00000000004135fc       0x54 shell/lib.a(ash.o)
 .text.SIT      0x0000000000413650       0xa4 shell/lib.a(ash.o)
 .text.bltinlookup
                0x00000000004136f4       0x74 shell/lib.a(ash.o)
 .text.calcsize
                0x0000000000413768      0x128 shell/lib.a(ash.o)
 .text.sizenodelist
                0x0000000000413890       0x4c shell/lib.a(ash.o)
 .text.endofname
                0x00000000004138dc       0x84 shell/lib.a(ash.o)
 .text.goodname
                0x0000000000413960       0x24 shell/lib.a(ash.o)
 .text.isassignment
                0x0000000000413984       0x3c shell/lib.a(ash.o)
 .text.freealias
                0x00000000004139c0       0x64 shell/lib.a(ash.o)
 .text.freefunc
                0x0000000000413a24       0x28 shell/lib.a(ash.o)
 .text.freeparam
                0x0000000000413a4c       0x60 shell/lib.a(ash.o)
 .text.scanright
                0x0000000000413aac       0xf0 shell/lib.a(ash.o)
 .text.scanleft
                0x0000000000413b9c       0xb8 shell/lib.a(ash.o)
 .text.__lookupalias
                0x0000000000413c54       0x94 shell/lib.a(ash.o)
 .text.lookupalias
                0x0000000000413ce8       0x3c shell/lib.a(ash.o)
 .text.msort    0x0000000000413d24       0xd8 shell/lib.a(ash.o)
 .text.pstrcmp  0x0000000000413dfc       0x10 shell/lib.a(ash.o)
 .text.ignoresig
                0x0000000000413e0c       0x60 shell/lib.a(ash.o)
 .text.setsignal
                0x0000000000413e6c      0x1f0 shell/lib.a(ash.o)
 .text.nodeckstrdup
                0x000000000041405c       0x60 shell/lib.a(ash.o)
 .text.copynode
                0x00000000004140bc      0x160 shell/lib.a(ash.o)
 .text.copynodelist
                0x000000000041421c       0x74 shell/lib.a(ash.o)
 .text.noclobberopen
                0x0000000000414290       0xe4 shell/lib.a(ash.o)
 .text.errmsg   0x0000000000414374       0x2c shell/lib.a(ash.o)
 .text.tokname  0x00000000004143a0       0x74 shell/lib.a(ash.o)
 .text.findkwd  0x0000000000414414       0x34 shell/lib.a(ash.o)
 .text.find_builtin
                0x0000000000414448       0x34 shell/lib.a(ash.o)
 .text.raise_interrupt
                0x000000000041447c       0x74 shell/lib.a(ash.o)
 .text.int_on   0x00000000004144f0       0x44 shell/lib.a(ash.o)
 .text.fmtstr   0x0000000000414534       0x48 shell/lib.a(ash.o)
 .text.sprint_status
                0x000000000041457c      0x114 shell/lib.a(ash.o)
 .text.removerecordregions
                0x0000000000414690      0x144 shell/lib.a(ash.o)
 .text.freejob  0x00000000004147d4       0xb8 shell/lib.a(ash.o)
 .text.unalias  0x000000000041488c       0x58 shell/lib.a(ash.o)
 .text.popstring
                0x00000000004148e4       0xe8 shell/lib.a(ash.o)
 .text.popfile  0x00000000004149cc       0xb4 shell/lib.a(ash.o)
 .text.popallfiles
                0x0000000000414a80       0x44 shell/lib.a(ash.o)
 .text.outstr   0x0000000000414ac4       0x2c shell/lib.a(ash.o)
 .text.out1str  0x0000000000414af0       0x10 shell/lib.a(ash.o)
 .text.flush_stderr
                0x0000000000414b00       0x34 shell/lib.a(ash.o)
 .text.out2str  0x0000000000414b34       0x20 shell/lib.a(ash.o)
 .text.stoppedjobs
                0x0000000000414b54       0x68 shell/lib.a(ash.o)
 .text.dowait   0x0000000000414bbc      0x1e0 shell/lib.a(ash.o)
 .text.popstackmark
                0x0000000000414d9c       0xa4 shell/lib.a(ash.o)
 .text.flush_stdout_stderr
                0x0000000000414e40       0x40 shell/lib.a(ash.o)
 .text.pgetc    0x0000000000414e80      0x2cc shell/lib.a(ash.o)
 .text.pgetc2   0x000000000041514c       0x2c shell/lib.a(ash.o)
 .text.delete_cmd_entry
                0x0000000000415178       0x64 shell/lib.a(ash.o)
 .text.out1fmt  0x00000000004151dc       0x50 shell/lib.a(ash.o)
 .text.printlim
                0x000000000041522c       0x48 shell/lib.a(ash.o)
 .text.timescmd
                0x0000000000415274       0xd4 shell/lib.a(ash.o)
 .text.clearcmdentry
                0x0000000000415348       0xd4 shell/lib.a(ash.o)
 .text.changepath
                0x000000000041541c      0x14c shell/lib.a(ash.o)
 .text.onsig    0x0000000000415568       0x68 shell/lib.a(ash.o)
 .text.force_int_on
                0x00000000004155d0       0x30 shell/lib.a(ash.o)
 .text.evalbltin
                0x0000000000415600      0x100 shell/lib.a(ash.o)
 .text.T.921    0x0000000000415700       0x88 shell/lib.a(ash.o)
 .text.showpipe
                0x0000000000415788       0x80 shell/lib.a(ash.o)
 .text.showjob  0x0000000000415808      0x220 shell/lib.a(ash.o)
 .text.showjobs
                0x0000000000415a28       0x98 shell/lib.a(ash.o)
 .text.ash_vmsg
                0x0000000000415ac0       0xe4 shell/lib.a(ash.o)
 .text.ash_msg  0x0000000000415ba4       0x30 shell/lib.a(ash.o)
 .text.ash_vmsg_and_raise
                0x0000000000415bd4       0x2c shell/lib.a(ash.o)
 .text.ash_msg_and_raise_error
                0x0000000000415c00       0x2c shell/lib.a(ash.o)
 .text.ckrealloc
                0x0000000000415c2c       0x2c shell/lib.a(ash.o)
 .text.ckmalloc
                0x0000000000415c58       0x10 shell/lib.a(ash.o)
 .text.ckzalloc
                0x0000000000415c68       0x28 shell/lib.a(ash.o)
 .text.recordregion
                0x0000000000415c90       0x94 shell/lib.a(ash.o)
 .text.cmdlookup
                0x0000000000415d24       0xf0 shell/lib.a(ash.o)
 .text.pushfile
                0x0000000000415e14       0x70 shell/lib.a(ash.o)
 .text.setinputstring
                0x0000000000415e84       0x68 shell/lib.a(ash.o)
 .text.pushstring
                0x0000000000415eec       0xcc shell/lib.a(ash.o)
 .text.tryexec  0x0000000000415fb8      0x120 shell/lib.a(ash.o)
 .text.makejob  0x00000000004160d8      0x1d4 shell/lib.a(ash.o)
 .text.varunset
                0x00000000004162ac       0x70 shell/lib.a(ash.o)
 .text.ckstrdup
                0x000000000041631c       0x2c shell/lib.a(ash.o)
 .text.setparam
                0x0000000000416348       0xa8 shell/lib.a(ash.o)
 .text.setvareq
                0x00000000004163f0      0x15c shell/lib.a(ash.o)
 .text.listsetvar
                0x000000000041654c       0x70 shell/lib.a(ash.o)
 .text.setvar   0x00000000004165bc      0x10c shell/lib.a(ash.o)
 .text.arith    0x00000000004166c8      0x744 shell/lib.a(ash.o)
 .text.arith_lookup_val
                0x0000000000416e0c       0xc0 shell/lib.a(ash.o)
 .text.unsetvar
                0x0000000000416ecc       0xe0 shell/lib.a(ash.o)
 .text.setpwd   0x0000000000416fac      0x108 shell/lib.a(ash.o)
 .text.localcmd
                0x00000000004170b4      0x18c shell/lib.a(ash.o)
 .text.xtcsetpgrp
                0x0000000000417240       0x2c shell/lib.a(ash.o)
 .text.waitforjob
                0x000000000041726c       0xa4 shell/lib.a(ash.o)
 .text.setjobctl
                0x0000000000417310      0x1cc shell/lib.a(ash.o)
 .text.optschanged
                0x00000000004174dc       0x60 shell/lib.a(ash.o)
 .text.copyfd   0x000000000041753c       0x78 shell/lib.a(ash.o)
 .text.popredir
                0x00000000004175b4      0x168 shell/lib.a(ash.o)
 .text.clearredir
                0x000000000041771c       0x50 shell/lib.a(ash.o)
 .text.raise_error_syntax
                0x000000000041776c       0x18 shell/lib.a(ash.o)
 .text.raise_error_unexpected_syntax
                0x0000000000417784       0x68 shell/lib.a(ash.o)
 .text.dash_arith
                0x00000000004177ec       0xa0 shell/lib.a(ash.o)
 .text.stalloc  0x000000000041788c       0xd0 shell/lib.a(ash.o)
 .text.ststrdup
                0x000000000041795c       0x38 shell/lib.a(ash.o)
 .text.stzalloc
                0x0000000000417994       0x28 shell/lib.a(ash.o)
 .text.addfname
                0x00000000004179bc       0x4c shell/lib.a(ash.o)
 .text.expmeta  0x0000000000417a08      0x314 shell/lib.a(ash.o)
 .text.makename
                0x0000000000417d1c       0x3c shell/lib.a(ash.o)
 .text.fixredir
                0x0000000000417d58       0xac shell/lib.a(ash.o)
 .text.growstackblock
                0x0000000000417e04      0x144 shell/lib.a(ash.o)
 .text.makestrspace
                0x0000000000417f48       0x5c shell/lib.a(ash.o)
 .text.memtodest
                0x0000000000417fa4       0xe0 shell/lib.a(ash.o)
 .text.stack_nputstr
                0x0000000000418084       0x4c shell/lib.a(ash.o)
 .text.stack_putstr
                0x00000000004180d0       0x34 shell/lib.a(ash.o)
 .text.cvtnum   0x0000000000418104       0x5c shell/lib.a(ash.o)
 .text.cmdputs  0x0000000000418160      0x29c shell/lib.a(ash.o)
 .text.cmdtxt   0x00000000004183fc      0x3b4 shell/lib.a(ash.o)
 .text.cmdlist  0x00000000004187b0       0x7c shell/lib.a(ash.o)
 .text.single_quote
                0x000000000041882c      0x100 shell/lib.a(ash.o)
 .text.printalias
                0x000000000041892c       0x38 shell/lib.a(ash.o)
 .text.aliascmd
                0x0000000000418964      0x1c4 shell/lib.a(ash.o)
 .text._rmescapes
                0x0000000000418b28      0x194 shell/lib.a(ash.o)
 .text.preglob  0x0000000000418cbc       0x18 shell/lib.a(ash.o)
 .text.growstackstr
                0x0000000000418cd4       0x60 shell/lib.a(ash.o)
 .text._STPUTC  0x0000000000418d34       0x3c shell/lib.a(ash.o)
 .text.listvars
                0x0000000000418d70       0xe4 shell/lib.a(ash.o)
 .text.showvars
                0x0000000000418e54      0x100 shell/lib.a(ash.o)
 .text.padvance
                0x0000000000418f54      0x170 shell/lib.a(ash.o)
 .text.readtoken1
                0x00000000004190c4     0x10f0 shell/lib.a(ash.o)
 .text.parseheredoc
                0x000000000041a1b4       0xd8 shell/lib.a(ash.o)
 .text.xxreadtoken
                0x000000000041a28c      0x270 shell/lib.a(ash.o)
 .text.readtoken
                0x000000000041a4fc      0x124 shell/lib.a(ash.o)
 .text.parsefname
                0x000000000041a620      0x1a4 shell/lib.a(ash.o)
 .text.peektoken
                0x000000000041a7c4       0x40 shell/lib.a(ash.o)
 .text.parse_command
                0x000000000041a804      0x748 shell/lib.a(ash.o)
 .text.pipeline
                0x000000000041af4c      0x120 shell/lib.a(ash.o)
 .text.list     0x000000000041b06c      0x224 shell/lib.a(ash.o)
 .text.parsecmd
                0x000000000041b290       0x78 shell/lib.a(ash.o)
 .text.forkshell
                0x000000000041b308      0x364 shell/lib.a(ash.o)
 .text.nextopt  0x000000000041b66c      0x108 shell/lib.a(ash.o)
 .text.cdopt    0x000000000041b774       0x60 shell/lib.a(ash.o)
 .text.pwdcmd   0x000000000041b7d4       0x68 shell/lib.a(ash.o)
 .text.unsetcmd
                0x000000000041b83c       0xdc shell/lib.a(ash.o)
 .text.unaliascmd
                0x000000000041b918      0x12c shell/lib.a(ash.o)
 .text.exportcmd
                0x000000000041ba44      0x104 shell/lib.a(ash.o)
 .text.number   0x000000000041bb48       0x34 shell/lib.a(ash.o)
 .text.returncmd
                0x000000000041bb7c       0x38 shell/lib.a(ash.o)
 .text.exitcmd  0x000000000041bbb4       0x4c shell/lib.a(ash.o)
 .text.shiftcmd
                0x000000000041bc00       0xc0 shell/lib.a(ash.o)
 .text.getjob   0x000000000041bcc0      0x1c8 shell/lib.a(ash.o)
 .text.waitcmd  0x000000000041be88      0x174 shell/lib.a(ash.o)
 .text.killcmd  0x000000000041bffc       0xcc shell/lib.a(ash.o)
 .text.jobscmd  0x000000000041c0c8       0xc8 shell/lib.a(ash.o)
 .text.fg_bgcmd
                0x000000000041c190      0x1a8 shell/lib.a(ash.o)
 .text.options  0x000000000041c338      0x2d4 shell/lib.a(ash.o)
 .text.setcmd   0x000000000041c60c       0x98 shell/lib.a(ash.o)
 .text.readcmd  0x000000000041c6a4      0x340 shell/lib.a(ash.o)
 .text.letcmd   0x000000000041c9e4       0x50 shell/lib.a(ash.o)
 .text.breakcmd
                0x000000000041ca34       0x90 shell/lib.a(ash.o)
 .text.umaskcmd
                0x000000000041cac4      0x200 shell/lib.a(ash.o)
 .text.ulimitcmd
                0x000000000041ccc4      0x234 shell/lib.a(ash.o)
 .text.setinputfile
                0x000000000041cef8      0x114 shell/lib.a(ash.o)
 .text.trapcmd  0x000000000041d00c      0x170 shell/lib.a(ash.o)
 .text.cdcmd    0x000000000041d17c      0x424 shell/lib.a(ash.o)
 .text.ash_msg_and_raise
                0x000000000041d5a0       0x20 shell/lib.a(ash.o)
 .text.shellexec
                0x000000000041d5c0      0x158 shell/lib.a(ash.o)
 .text.execcmd  0x000000000041d718       0x58 shell/lib.a(ash.o)
 .text.expandarg
                0x000000000041d770      0x48c shell/lib.a(ash.o)
 .text.expredir
                0x000000000041dbfc       0xf4 shell/lib.a(ash.o)
 .text.redirect
                0x000000000041dcf0      0x50c shell/lib.a(ash.o)
 .text.redirectsafe
                0x000000000041e1fc       0xb8 shell/lib.a(ash.o)
 .text.evaltree
                0x000000000041e2b4      0x434 shell/lib.a(ash.o)
 .text.argstr   0x000000000041e6e8      0x6a8 shell/lib.a(ash.o)
 .text.subevalvar
                0x000000000041ed90      0x5cc shell/lib.a(ash.o)
 .text.evalvar  0x000000000041f35c      0x738 shell/lib.a(ash.o)
 .text.evalstring
                0x000000000041fa94       0xa4 shell/lib.a(ash.o)
 .text.evalcmd  0x000000000041fb38       0xa8 shell/lib.a(ash.o)
 .text.exitshell
                0x000000000041fbe0       0x7c shell/lib.a(ash.o)
 .text.cmdloop  0x000000000041fc5c      0x14c shell/lib.a(ash.o)
 .text.find_command
                0x000000000041fda8      0x43c shell/lib.a(ash.o)
 .text.typecmd  0x00000000004201e4      0x2a8 shell/lib.a(ash.o)
 .text.hashcmd  0x000000000042048c      0x1e0 shell/lib.a(ash.o)
 .text.evalpipe
                0x000000000042066c      0x1fc shell/lib.a(ash.o)
 .text.dotcmd   0x0000000000420868      0x1a4 shell/lib.a(ash.o)
 .text.read_profile
                0x0000000000420a0c       0x44 shell/lib.a(ash.o)
 .text.ash_main
                0x0000000000420a50      0x620 shell/lib.a(ash.o)
                0x0000000000420a50                ash_main
 .text.evalloop
                0x0000000000421070      0x120 shell/lib.a(ash.o)
 .text.evalfun  0x0000000000421190      0x26c shell/lib.a(ash.o)
 .text.evalsubshell
                0x00000000004213fc       0xec shell/lib.a(ash.o)
 .text.evalcase
                0x00000000004214e8      0x190 shell/lib.a(ash.o)
 .text.evalfor  0x0000000000421678      0x154 shell/lib.a(ash.o)
 .text.evalcommand
                0x00000000004217cc      0x504 shell/lib.a(ash.o)
 .text.klogd_main
                0x0000000000421cd0      0x238 sysklogd/lib.a(klogd.o)
                0x0000000000421cd0                klogd_main
 .text.klogd_signal
                0x0000000000421f08       0x48 sysklogd/lib.a(klogd.o)
 .text.create_socket
                0x0000000000421f50       0xb8 sysklogd/lib.a(syslogd_and_logger.o)
 .text.log_locally
                0x0000000000422008      0x358 sysklogd/lib.a(syslogd_and_logger.o)
 .text.timestamp_and_log
                0x0000000000422360      0x1b4 sysklogd/lib.a(syslogd_and_logger.o)
 .text.timestamp_and_log_internal
                0x0000000000422514       0x30 sysklogd/lib.a(syslogd_and_logger.o)
 .text.syslogd_main
                0x0000000000422544      0x534 sysklogd/lib.a(syslogd_and_logger.o)
                0x0000000000422544                syslogd_main
 .text.quit_signal
                0x0000000000422a78       0x84 sysklogd/lib.a(syslogd_and_logger.o)
 .text.parse_mount_options
                0x0000000000422afc      0x160 util-linux/lib.a(mount.o)
 .text.append_mount_options
                0x0000000000422c5c      0x144 util-linux/lib.a(mount.o)
 .text.mount_it_now
                0x0000000000422da0      0x188 util-linux/lib.a(mount.o)
 .text.singlemount
                0x0000000000422f28      0x244 util-linux/lib.a(mount.o)
 .text.mount_main
                0x000000000042316c      0x454 util-linux/lib.a(mount.o)
                0x000000000042316c                mount_main
 .text.umount_main
                0x00000000004235c0      0x2fc util-linux/lib.a(umount.o)
                0x00000000004235c0                umount_main
 .text.unpack_bunzip2
                0x00000000004238bc       0x10 archival/lib.a(bbunzip.o)
 .text.open_to_or_warn
                0x00000000004238cc       0x48 archival/lib.a(bbunzip.o)
 .text.bbunpack
                0x0000000000423914      0x26c archival/lib.a(bbunzip.o)
                0x0000000000423914                bbunpack
 .text.bunzip2_main
                0x0000000000423b80       0x74 archival/lib.a(bbunzip.o)
                0x0000000000423b80                bunzip2_main
 .text.make_new_name_bunzip2
                0x0000000000423bf4       0x60 archival/lib.a(bbunzip.o)
 .text.dealloc_bunzip
                0x0000000000423c54       0x2c archival/libunarchive/lib.a(decompress_bunzip2.o)
                0x0000000000423c54                dealloc_bunzip
 .text.get_bits
                0x0000000000423c80      0x110 archival/libunarchive/lib.a(decompress_bunzip2.o)
 .text.start_bunzip
                0x0000000000423d90      0x10c archival/libunarchive/lib.a(decompress_bunzip2.o)
                0x0000000000423d90                start_bunzip
 .text.get_next_block
                0x0000000000423e9c      0x950 archival/libunarchive/lib.a(decompress_bunzip2.o)
 .text.read_bunzip
                0x00000000004247ec      0x1b8 archival/libunarchive/lib.a(decompress_bunzip2.o)
                0x00000000004247ec                read_bunzip
 .text.unpack_bz2_stream
                0x00000000004249a4      0x108 archival/libunarchive/lib.a(decompress_bunzip2.o)
                0x00000000004249a4                unpack_bz2_stream
 .text.unpack_bz2_stream_prime
                0x0000000000424aac       0x68 archival/libunarchive/lib.a(decompress_bunzip2.o)
                0x0000000000424aac                unpack_bz2_stream_prime
 .text.bb_cat   0x0000000000424b14       0x94 coreutils/lib.a(cat.o)
                0x0000000000424b14                bb_cat
 .text.cat_main
                0x0000000000424ba8       0x40 coreutils/lib.a(cat.o)
                0x0000000000424ba8                cat_main
 .text.chmod_main
                0x0000000000424be8      0x128 coreutils/lib.a(chmod.o)
                0x0000000000424be8                chmod_main
 .text.fileAction
                0x0000000000424d10       0xb0 coreutils/lib.a(chmod.o)
 .text.cp_main  0x0000000000424dc0      0x174 coreutils/lib.a(cp.o)
                0x0000000000424dc0                cp_main
 .text.cmpfunc  0x0000000000424f34       0x10 coreutils/lib.a(cut.o)
 .text.cut_main
                0x0000000000424f44      0x578 coreutils/lib.a(cut.o)
                0x0000000000424f44                cut_main
 .text.maybe_set_utc
                0x00000000004254bc       0x20 coreutils/lib.a(date.o)
 .text.date_main
                0x00000000004254dc      0x510 coreutils/lib.a(date.o)
                0x00000000004254dc                date_main
 .text.echo_main
                0x00000000004259ec      0x1d8 coreutils/lib.a(echo.o)
                0x00000000004259ec                echo_main
 .text.null     0x0000000000425bc4       0x40 coreutils/lib.a(expr.o)
 .text.tostring
                0x0000000000425c04       0x44 coreutils/lib.a(expr.o)
 .text.int_value
                0x0000000000425c48       0x2c coreutils/lib.a(expr.o)
 .text.str_value
                0x0000000000425c74       0x4c coreutils/lib.a(expr.o)
 .text.docolon  0x0000000000425cc0      0x128 coreutils/lib.a(expr.o)
 .text.toarith  0x0000000000425de8       0x74 coreutils/lib.a(expr.o)
 .text.arithmetic_common
                0x0000000000425e5c       0xc4 coreutils/lib.a(expr.o)
 .text.freev    0x0000000000425f20       0x38 coreutils/lib.a(expr.o)
 .text.nextarg  0x0000000000425f58       0x50 coreutils/lib.a(expr.o)
 .text.eval     0x0000000000425fa8       0x9c coreutils/lib.a(expr.o)
 .text.eval6    0x0000000000426044      0x2b8 coreutils/lib.a(expr.o)
 .text.eval5    0x00000000004262fc       0x9c coreutils/lib.a(expr.o)
 .text.eval4    0x0000000000426398       0xf0 coreutils/lib.a(expr.o)
 .text.eval3    0x0000000000426488       0xd0 coreutils/lib.a(expr.o)
 .text.eval2    0x0000000000426558      0x1e4 coreutils/lib.a(expr.o)
 .text.eval1    0x000000000042673c       0xbc coreutils/lib.a(expr.o)
 .text.expr_main
                0x00000000004267f8       0x88 coreutils/lib.a(expr.o)
                0x00000000004267f8                expr_main
 .text.false_main
                0x0000000000426880        0x8 coreutils/lib.a(false.o)
                0x0000000000426880                false_main
 .text.head_main
                0x0000000000426888      0x204 coreutils/lib.a(head.o)
                0x0000000000426888                head_main
 .text.ln_main  0x0000000000426a8c      0x274 coreutils/lib.a(ln.o)
                0x0000000000426a8c                ln_main
 .text.append_char
                0x0000000000426d00       0x64 coreutils/lib.a(ls.o)
 .text.count_dirs
                0x0000000000426d64       0x7c coreutils/lib.a(ls.o)
 .text.my_stat  0x0000000000426de0       0xb4 coreutils/lib.a(ls.o)
 .text.dnalloc  0x0000000000426e94       0x18 coreutils/lib.a(ls.o)
 .text.splitdnarray
                0x0000000000426eac      0x114 coreutils/lib.a(ls.o)
 .text.showfiles
                0x0000000000426fc0      0x5e8 coreutils/lib.a(ls.o)
 .text.dnsort   0x00000000004275a8       0x14 coreutils/lib.a(ls.o)
 .text.sortcmp  0x00000000004275bc       0xd8 coreutils/lib.a(ls.o)
 .text.showdirs
                0x0000000000427694      0x2cc coreutils/lib.a(ls.o)
 .text.ls_main  0x0000000000427960      0x3a8 coreutils/lib.a(ls.o)
                0x0000000000427960                ls_main
 .text.mkdir_main
                0x0000000000427d08       0xe8 coreutils/lib.a(mkdir.o)
                0x0000000000427d08                mkdir_main
 .text.get_width_prec
                0x0000000000427df0       0x50 coreutils/lib.a(printf.o)
 .text.conv_strtol
                0x0000000000427e40       0x30 coreutils/lib.a(printf.o)
 .text.multiconvert
                0x0000000000427e70       0x94 coreutils/lib.a(printf.o)
 .text.print_direc
                0x0000000000427f04      0x244 coreutils/lib.a(printf.o)
 .text.printf_main
                0x0000000000428148      0x410 coreutils/lib.a(printf.o)
                0x0000000000428148                printf_main
 .text.conv_strtoul
                0x0000000000428558       0x30 coreutils/lib.a(printf.o)
 .text.conv_strtod
                0x0000000000428588       0x54 coreutils/lib.a(printf.o)
 .text.rm_main  0x00000000004285dc      0x140 coreutils/lib.a(rm.o)
                0x00000000004285dc                rm_main
 .text.sleep_main
                0x000000000042871c       0x3c coreutils/lib.a(sleep.o)
                0x000000000042871c                sleep_main
 .text.eat_num  0x0000000000428758       0x34 coreutils/lib.a(tail.o)
 .text.tail_xprint_header
                0x000000000042878c       0x30 coreutils/lib.a(tail.o)
 .text.tail_read
                0x00000000004287bc       0xb4 coreutils/lib.a(tail.o)
 .text.tail_main
                0x0000000000428870      0x4f8 coreutils/lib.a(tail.o)
                0x0000000000428870                tail_main
 .text.check_operator
                0x0000000000428d68       0x90 coreutils/lib.a(test.o)
 .text.syntax   0x0000000000428df8       0x5c coreutils/lib.a(test.o)
 .text.getn     0x0000000000428e54       0x84 coreutils/lib.a(test.o)
 .text.binop    0x0000000000428ed8      0x1f8 coreutils/lib.a(test.o)
 .text.filstat  0x00000000004290d0      0x29c coreutils/lib.a(test.o)
 .text.nexpr    0x000000000042936c      0x1c4 coreutils/lib.a(test.o)
 .text.aexpr    0x0000000000429530       0x88 coreutils/lib.a(test.o)
 .text.oexpr    0x00000000004295b8       0x8c coreutils/lib.a(test.o)
 .text.test_main
                0x0000000000429644      0x16c coreutils/lib.a(test.o)
                0x0000000000429644                test_main
 .text.true_main
                0x00000000004297b0        0x8 coreutils/lib.a(true.o)
                0x00000000004297b0                true_main
 .text.wc_main  0x00000000004297b8      0x2ec coreutils/lib.a(wc.o)
                0x00000000004297b8                wc_main
 .text.cp_mv_stat2
                0x0000000000429aa4       0x80 coreutils/libcoreutils/lib.a(cp_mv_stat.o)
                0x0000000000429aa4                cp_mv_stat2
 .text.cp_mv_stat
                0x0000000000429b24       0x10 coreutils/libcoreutils/lib.a(cp_mv_stat.o)
                0x0000000000429b24                cp_mv_stat
 .text.hashidx  0x0000000000429b34       0x28 editors/lib.a(awk.o)
 .text.skip_spaces
                0x0000000000429b5c       0x64 editors/lib.a(awk.o)
 .text.nextword
                0x0000000000429bc0       0x20 editors/lib.a(awk.o)
 .text.rollback_token
                0x0000000000429be0       0x14 editors/lib.a(awk.o)
 .text.nextarg  0x0000000000429bf4       0x38 editors/lib.a(awk.o)
 .text.hash_init
                0x0000000000429c2c       0x40 editors/lib.a(awk.o)
 .text.iamarray
                0x0000000000429c6c       0x50 editors/lib.a(awk.o)
 .text.new_node
                0x0000000000429cbc       0x3c editors/lib.a(awk.o)
 .text.nvalloc  0x0000000000429cf8      0x104 editors/lib.a(awk.o)
 .text.qrealloc
                0x0000000000429dfc       0x54 editors/lib.a(awk.o)
 .text.clrvar   0x0000000000429e50       0x4c editors/lib.a(awk.o)
 .text.fsrealloc
                0x0000000000429e9c       0xd8 editors/lib.a(awk.o)
 .text.clear_array
                0x0000000000429f74       0x9c editors/lib.a(awk.o)
 .text.zero_out_var
                0x000000000042a010       0x1c editors/lib.a(awk.o)
 .text.chain_node
                0x000000000042a02c       0xa8 editors/lib.a(awk.o)
 .text.mk_re_node
                0x000000000042a0d4       0x68 editors/lib.a(awk.o)
 .text.mk_splitter
                0x000000000042a13c       0x8c editors/lib.a(awk.o)
 .text.my_strtod
                0x000000000042a1c8       0x10 editors/lib.a(awk.o)
 .text.getvar_i
                0x000000000042a1d8       0xb4 editors/lib.a(awk.o)
 .text.is_numeric
                0x000000000042a28c       0x30 editors/lib.a(awk.o)
 .text.istrue   0x000000000042a2bc       0x68 editors/lib.a(awk.o)
 .text.getvar_i_int
                0x000000000042a324       0x74 editors/lib.a(awk.o)
 .text.hash_search
                0x000000000042a398       0x80 editors/lib.a(awk.o)
 .text.hash_find
                0x000000000042a418      0x190 editors/lib.a(awk.o)
 .text.hash_remove
                0x000000000042a5a8       0xcc editors/lib.a(awk.o)
 .text.nextchar
                0x000000000042a674       0x74 editors/lib.a(awk.o)
 .text.syntax_error
                0x000000000042a6e8       0x2c editors/lib.a(awk.o)
 .text.fmt_num  0x000000000042a714      0x14c editors/lib.a(awk.o)
 .text.getvar_s
                0x000000000042a860       0xac editors/lib.a(awk.o)
 .text.handle_special
                0x000000000042a90c      0x230 editors/lib.a(awk.o)
 .text.setvar_p
                0x000000000042ab3c       0x3c editors/lib.a(awk.o)
 .text.setvar_s
                0x000000000042ab78       0x4c editors/lib.a(awk.o)
 .text.setvar_u
                0x000000000042abc4       0x34 editors/lib.a(awk.o)
 .text.is_assignment
                0x000000000042abf8       0xe4 editors/lib.a(awk.o)
 .text.setari_u
                0x000000000042acdc       0x70 editors/lib.a(awk.o)
 .text.setvar_i
                0x000000000042ad4c       0x5c editors/lib.a(awk.o)
 .text.incvar   0x000000000042ada8       0x48 editors/lib.a(awk.o)
 .text.awk_getline
                0x000000000042adf0      0x328 editors/lib.a(awk.o)
 .text.copyvar  0x000000000042b118       0x78 editors/lib.a(awk.o)
 .text.awk_split
                0x000000000042b190      0x2f0 editors/lib.a(awk.o)
 .text.split_f0
                0x000000000042b480      0x118 editors/lib.a(awk.o)
 .text.next_input_file
                0x000000000042b598      0x17c editors/lib.a(awk.o)
 .text.next_token
                0x000000000042b714      0x4f8 editors/lib.a(awk.o)
 .text.parse_expr
                0x000000000042bc0c      0x3fc editors/lib.a(awk.o)
 .text.condition
                0x000000000042c008       0x20 editors/lib.a(awk.o)
 .text.chain_expr
                0x000000000042c028       0x54 editors/lib.a(awk.o)
 .text.chain_group
                0x000000000042c07c      0x354 editors/lib.a(awk.o)
 .text.parse_program
                0x000000000042c3d0      0x20c editors/lib.a(awk.o)
 .text.chain_loop
                0x000000000042c5dc       0xc4 editors/lib.a(awk.o)
 .text.nvfree   0x000000000042c6a0      0x104 editors/lib.a(awk.o)
 .text.awk_exit
                0x000000000042c7a4       0xb8 editors/lib.a(awk.o)
 .text.evaluate
                0x000000000042c85c     0x1a44 editors/lib.a(awk.o)
 .text.as_regex
                0x000000000042e2a0       0xb4 editors/lib.a(awk.o)
 .text.awk_sub  0x000000000042e354      0x304 editors/lib.a(awk.o)
 .text.awk_printf
                0x000000000042e658      0x294 editors/lib.a(awk.o)
 .text.ptest    0x000000000042e8ec       0x28 editors/lib.a(awk.o)
 .text.awk_main
                0x000000000042e914      0x4cc editors/lib.a(awk.o)
                0x000000000042e914                awk_main
 .text.add_grep_list_data
                0x000000000042ede0       0x2c findutils/lib.a(grep.o)
 .text.T.25     0x000000000042ee0c       0x9c findutils/lib.a(grep.o)
 .text.grep_file
                0x000000000042eea8      0x268 findutils/lib.a(grep.o)
 .text.grep_main
                0x000000000042f110      0x30c findutils/lib.a(grep.o)
                0x000000000042f110                grep_main
 .text.file_action_grep
                0x000000000042f41c       0xa0 findutils/lib.a(grep.o)
 .text.halt_main
                0x000000000042f4bc      0x100 init/lib.a(halt.o)
                0x000000000042f4bc                halt_main
 .text.loop_forever
                0x000000000042f5bc       0x18 init/lib.a(init.o)
 .text.waitfor  0x000000000042f5d4       0x34 init/lib.a(init.o)
 .text.init_reboot
                0x000000000042f608       0x3c init/lib.a(init.o)
 .text.set_sane_term
                0x000000000042f644       0xa0 init/lib.a(init.o)
 .text.new_init_action
                0x000000000042f6e4       0xec init/lib.a(init.o)
 .text.delete_init_action
                0x000000000042f7d0       0x4c init/lib.a(init.o)
 .text.message  0x000000000042f81c       0xe0 init/lib.a(init.o)
 .text.parse_inittab
                0x000000000042f8fc      0x220 init/lib.a(init.o)
 .text.init_exec
                0x000000000042fb1c      0x15c init/lib.a(init.o)
 .text.stop_handler
                0x000000000042fc78       0x60 init/lib.a(init.o)
 .text.kill_all_processes
                0x000000000042fcd8       0xa8 init/lib.a(init.o)
 .text.halt_reboot_pwoff
                0x000000000042fd80       0x88 init/lib.a(init.o)
 .text.open_stdio_to_tty
                0x000000000042fe08       0xa4 init/lib.a(init.o)
 .text.run      0x000000000042feac      0x174 init/lib.a(init.o)
 .text.run_actions
                0x0000000000430020       0xb8 init/lib.a(init.o)
 .text.init_main
                0x00000000004300d8      0x388 init/lib.a(init.o)
                0x00000000004300d8                init_main
 .text.reload_signal
                0x0000000000430460       0x8c init/lib.a(init.o)
 .text.ctrlaltdel_signal
                0x00000000004304ec        0xc init/lib.a(init.o)
 .text.exec_restart_action
                0x00000000004304f8       0x78 init/lib.a(init.o)
 .text.bb_do_delay
                0x0000000000430570       0x94 libbb/lib.a(bb_do_delay.o)
                0x0000000000430570                bb_do_delay
 .text.ret_ERANGE
                0x0000000000430604       0x1c libbb/lib.a(bb_strtonum.o)
 .text.handle_errors
                0x0000000000430620       0x74 libbb/lib.a(bb_strtonum.o)
 .text.bb_strtol
                0x0000000000430694       0x88 libbb/lib.a(bb_strtonum.o)
                0x0000000000430694                bb_strtol
 .text.bb_strtoul
                0x000000000043071c       0x7c libbb/lib.a(bb_strtonum.o)
                0x000000000043071c                bb_strtoul
 .text.change_identity
                0x0000000000430798       0x54 libbb/lib.a(change_identity.o)
                0x0000000000430798                change_identity
 .text.nth_string
                0x00000000004307ec       0x48 libbb/lib.a(compare_string_array.o)
                0x00000000004307ec                nth_string
 .text.index_in_substrings
                0x0000000000430834       0x94 libbb/lib.a(compare_string_array.o)
                0x0000000000430834                index_in_substrings
 .text.index_in_strings
                0x00000000004308c8       0x74 libbb/lib.a(compare_string_array.o)
                0x00000000004308c8                index_in_strings
 .text.concat_path_file
                0x000000000043093c       0x78 libbb/lib.a(concat_path_file.o)
                0x000000000043093c                concat_path_file
 .text.ask_and_unlink
                0x00000000004309b4       0xa0 libbb/lib.a(copy_file.o)
 .text.copy_file
                0x0000000000430a54      0x654 libbb/lib.a(copy_file.o)
                0x0000000000430a54                copy_file
 .text.correct_password
                0x00000000004310a8       0xac libbb/lib.a(correct_password.o)
                0x00000000004310a8                correct_password
 .text.crc32_filltable
                0x0000000000431154       0xa0 libbb/lib.a(crc32.o)
                0x0000000000431154                crc32_filltable
 .text.create_icmp6_socket
                0x00000000004311f4       0x74 libbb/lib.a(create_icmp6_socket.o)
                0x00000000004311f4                create_icmp6_socket
 .text.create_icmp_socket
                0x0000000000431268       0x74 libbb/lib.a(create_icmp_socket.o)
                0x0000000000431268                create_icmp_socket
 .text.device_open
                0x00000000004312dc       0xa4 libbb/lib.a(device_open.o)
                0x00000000004312dc                device_open
 .text.bb_execvp
                0x0000000000431380       0x3c libbb/lib.a(execable.o)
                0x0000000000431380                bb_execvp
 .text.fclose_if_not_stdin
                0x00000000004313bc       0x64 libbb/lib.a(fclose_nonstdin.o)
                0x00000000004313bc                fclose_if_not_stdin
 .text.fflush_stdout_and_exit
                0x0000000000431420       0x4c libbb/lib.a(fflush_stdout_and_exit.o)
                0x0000000000431420                fflush_stdout_and_exit
 .text.find_pid_by_name
                0x000000000043146c      0x140 libbb/lib.a(find_pid_by_name.o)
                0x000000000043146c                find_pid_by_name
 .text.bb_get_chunk_with_continuation
                0x00000000004315ac      0x170 libbb/lib.a(get_line_from_file.o)
                0x00000000004315ac                bb_get_chunk_with_continuation
 .text.bb_get_chunk_from_file
                0x000000000043171c        0xc libbb/lib.a(get_line_from_file.o)
                0x000000000043171c                bb_get_chunk_from_file
 .text.xmalloc_fgetline
                0x0000000000431728       0x40 libbb/lib.a(get_line_from_file.o)
                0x0000000000431728                xmalloc_fgetline
 .text.getopt32
                0x0000000000431768      0x550 libbb/lib.a(getopt32.o)
                0x0000000000431768                getopt32
 .text.xgetpty  0x0000000000431cb8       0x84 libbb/lib.a(getpty.o)
                0x0000000000431cb8                xgetpty
 .text.INET6_rresolve
                0x0000000000431d3c       0xf8 libbb/lib.a(inet_common.o)
                0x0000000000431d3c                INET6_rresolve
 .text.INET6_resolve
                0x0000000000431e34       0xa4 libbb/lib.a(inet_common.o)
                0x0000000000431e34                INET6_resolve
 .text.INET_rresolve
                0x0000000000431ed8      0x18c libbb/lib.a(inet_common.o)
                0x0000000000431ed8                INET_rresolve
 .text.INET_resolve
                0x0000000000432064       0xa0 libbb/lib.a(inet_common.o)
                0x0000000000432064                INET_resolve
 .text.bb_info_msg
                0x0000000000432104       0x88 libbb/lib.a(info_msg.o)
                0x0000000000432104                bb_info_msg
 .text.is_in_ino_dev_hashtable
                0x000000000043218c       0x74 libbb/lib.a(inode_hash.o)
                0x000000000043218c                is_in_ino_dev_hashtable
 .text.add_to_ino_dev_hashtable
                0x0000000000432200       0xc4 libbb/lib.a(inode_hash.o)
                0x0000000000432200                add_to_ino_dev_hashtable
 .text.is_directory
                0x00000000004322c4       0x5c libbb/lib.a(isdirectory.o)
                0x00000000004322c4                is_directory
 .text.new_line_input_t
                0x0000000000432320       0x2c libbb/lib.a(lineedit.o)
                0x0000000000432320                new_line_input_t
 .text.put_prompt
                0x000000000043234c       0x5c libbb/lib.a(lineedit.o)
 .text.parse_and_put_prompt
                0x00000000004323a8       0x30 libbb/lib.a(lineedit.o)
 .text.beep     0x00000000004323d8        0xc libbb/lib.a(lineedit.o)
 .text.input_backward
                0x00000000004323e4       0xd0 libbb/lib.a(lineedit.o)
 .text.free_tab_completion_data
                0x00000000004324b4       0x68 libbb/lib.a(lineedit.o)
 .text.deinit_S
                0x000000000043251c       0x10 libbb/lib.a(lineedit.o)
 .text.save_command_ps_at_cur_history
                0x000000000043252c       0x6c libbb/lib.a(lineedit.o)
 .text.get_previous_history
                0x0000000000432598       0x70 libbb/lib.a(lineedit.o)
 .text.get_next_history
                0x0000000000432608       0x74 libbb/lib.a(lineedit.o)
 .text.add_quote_for_spec_chars
                0x000000000043267c       0xa8 libbb/lib.a(lineedit.o)
 .text.cmdedit_set_out_char
                0x0000000000432724       0x80 libbb/lib.a(lineedit.o)
 .text.input_forward
                0x00000000004327a4       0x2c libbb/lib.a(lineedit.o)
 .text.input_end
                0x00000000004327d0       0x40 libbb/lib.a(lineedit.o)
 .text.goto_new_line
                0x0000000000432810       0x38 libbb/lib.a(lineedit.o)
 .text.redraw   0x0000000000432848       0x60 libbb/lib.a(lineedit.o)
 .text.input_tab
                0x00000000004328a8      0xecc libbb/lib.a(lineedit.o)
 .text.input_delete
                0x0000000000433774       0x80 libbb/lib.a(lineedit.o)
 .text.input_backspace
                0x00000000004337f4       0x38 libbb/lib.a(lineedit.o)
 .text.win_changed
                0x000000000043382c       0xa0 libbb/lib.a(lineedit.o)
 .text.read_line_input
                0x00000000004338cc      0x828 libbb/lib.a(lineedit.o)
                0x00000000004338cc                read_line_input
 .text.llist_rev
                0x00000000004340f4       0x24 libbb/lib.a(llist.o)
                0x00000000004340f4                llist_rev
 .text.llist_pop
                0x0000000000434118       0x50 libbb/lib.a(llist.o)
                0x0000000000434118                llist_pop
 .text.llist_add_to_end
                0x0000000000434168       0x5c libbb/lib.a(llist.o)
                0x0000000000434168                llist_add_to_end
 .text.llist_add_to
                0x00000000004341c4       0x40 libbb/lib.a(llist.o)
                0x00000000004341c4                llist_add_to
 .text.sanitize_env_if_suid
                0x0000000000434204       0x70 libbb/lib.a(login.o)
                0x0000000000434204                sanitize_env_if_suid
 .text.print_login_prompt
                0x0000000000434274       0x58 libbb/lib.a(login.o)
                0x0000000000434274                print_login_prompt
 .text.print_login_issue
                0x00000000004342cc      0x290 libbb/lib.a(login.o)
                0x00000000004342cc                print_login_issue
 .text.bb_make_directory
                0x000000000043455c      0x1b8 libbb/lib.a(make_directory.o)
                0x000000000043455c                bb_make_directory
 .text.match_fstype
                0x0000000000434714       0xd8 libbb/lib.a(match_fstype.o)
                0x0000000000434714                match_fstype
 .text.bb_mode_string
                0x00000000004347ec       0xb8 libbb/lib.a(mode_string.o)
                0x00000000004347ec                bb_mode_string
 .text.config_free_data
                0x00000000004348a4       0x2c libbb/lib.a(parse_config.o)
 .text.config_read
                0x00000000004348d0      0x29c libbb/lib.a(parse_config.o)
                0x00000000004348d0                config_read
 .text.config_close
                0x0000000000434b6c       0x48 libbb/lib.a(parse_config.o)
                0x0000000000434b6c                config_close
 .text.config_open2
                0x0000000000434bb4       0x40 libbb/lib.a(parse_config.o)
                0x0000000000434bb4                config_open2
 .text.config_open
                0x0000000000434bf4       0x10 libbb/lib.a(parse_config.o)
                0x0000000000434bf4                config_open
 .text.bb_parse_mode
                0x0000000000434c04      0x2ec libbb/lib.a(parse_mode.o)
                0x0000000000434c04                bb_parse_mode
 .text.bb_perror_nomsg_and_die
                0x0000000000434ef0        0xc libbb/lib.a(perror_nomsg_and_die.o)
                0x0000000000434ef0                bb_perror_nomsg_and_die
 .text.bb_process_escape_sequence
                0x0000000000434efc       0xe0 libbb/lib.a(process_escape_sequence.o)
                0x0000000000434efc                bb_process_escape_sequence
 .text.fast_strtoul_16
                0x0000000000434fdc       0x48 libbb/lib.a(procps.o)
 .text.fast_strtoul_10
                0x0000000000435024       0x3c libbb/lib.a(procps.o)
 .text.skip_fields
                0x0000000000435060       0x28 libbb/lib.a(procps.o)
 .text.read_cmdline
                0x0000000000435088       0xb0 libbb/lib.a(procps.o)
                0x0000000000435088                read_cmdline
 .text.clear_cache
                0x0000000000435138       0x30 libbb/lib.a(procps.o)
 .text.clear_username_cache
                0x0000000000435168       0x28 libbb/lib.a(procps.o)
                0x0000000000435168                clear_username_cache
 .text.read_to_buf
                0x0000000000435190       0x78 libbb/lib.a(procps.o)
 .text.free_procps_scan
                0x0000000000435208       0x34 libbb/lib.a(procps.o)
                0x0000000000435208                free_procps_scan
 .text.procps_scan
                0x000000000043523c      0x5c8 libbb/lib.a(procps.o)
                0x000000000043523c                procps_scan
 .text.get_cached
                0x0000000000435804       0xb4 libbb/lib.a(procps.o)
 .text.get_cached_groupname
                0x00000000004358b8       0x1c libbb/lib.a(procps.o)
                0x00000000004358b8                get_cached_groupname
 .text.get_cached_username
                0x00000000004358d4       0x1c libbb/lib.a(procps.o)
                0x00000000004358d4                get_cached_username
 .text.pw_encrypt
                0x00000000004358f0       0x20 libbb/lib.a(pw_encrypt.o)
                0x00000000004358f0                pw_encrypt
 .text.true_action
                0x0000000000435910        0x8 libbb/lib.a(recursive_action.o)
 .text.recursive_action
                0x0000000000435918      0x200 libbb/lib.a(recursive_action.o)
                0x0000000000435918                recursive_action
 .text.remove_file
                0x0000000000435b18      0x280 libbb/lib.a(remove_file.o)
                0x0000000000435b18                remove_file
 .text.run_shell
                0x0000000000435d98       0xf8 libbb/lib.a(run_shell.o)
                0x0000000000435d98                run_shell
 .text.safe_gethostname
                0x0000000000435e90       0x38 libbb/lib.a(safe_gethostname.o)
                0x0000000000435e90                safe_gethostname
 .text.overlapping_strcpy
                0x0000000000435ec8       0x24 libbb/lib.a(safe_strncpy.o)
                0x0000000000435ec8                overlapping_strcpy
 .text.safe_strncpy
                0x0000000000435eec       0x24 libbb/lib.a(safe_strncpy.o)
                0x0000000000435eec                safe_strncpy
 .text.setup_environment
                0x0000000000435f10      0x134 libbb/lib.a(setup_environment.o)
                0x0000000000435f10                setup_environment
 .text.record_signo
                0x0000000000436044        0xc libbb/lib.a(signals.o)
                0x0000000000436044                record_signo
 .text.bb_signals
                0x0000000000436050       0x70 libbb/lib.a(signals.o)
                0x0000000000436050                bb_signals
 .text.sig_unblock
                0x00000000004360c0       0x4c libbb/lib.a(signals.o)
                0x00000000004360c0                sig_unblock
 .text.kill_myself_with_sig
                0x000000000043610c       0x30 libbb/lib.a(signals.o)
                0x000000000043610c                kill_myself_with_sig
 .text.sigprocmask_allsigs
                0x000000000043613c       0x40 libbb/lib.a(signals.o)
                0x000000000043613c                sigprocmask_allsigs
 .text.sigaction_set
                0x000000000043617c        0xc libbb/lib.a(signals.o)
                0x000000000043617c                sigaction_set
 .text.bb_simplify_path
                0x0000000000436188      0x128 libbb/lib.a(simplify_path.o)
                0x0000000000436188                bb_simplify_path
 .text.skip_non_whitespace
                0x00000000004362b0       0x40 libbb/lib.a(skip_whitespace.o)
                0x00000000004362b0                skip_non_whitespace
 .text.skip_whitespace
                0x00000000004362f0       0x34 libbb/lib.a(skip_whitespace.o)
                0x00000000004362f0                skip_whitespace
 .text.strrstr  0x0000000000436324       0x70 libbb/lib.a(strrstr.o)
                0x0000000000436324                strrstr
 .text.monotonic_sec
                0x0000000000436394        0xc libbb/lib.a(time.o)
                0x0000000000436394                monotonic_sec
 .text.monotonic_us
                0x00000000004363a0       0x50 libbb/lib.a(time.o)
                0x00000000004363a0                monotonic_us
 .text.print_signames
                0x00000000004363f0       0x54 libbb/lib.a(u_signal_names.o)
                0x00000000004363f0                print_signames
 .text.get_signame
                0x0000000000436444       0x38 libbb/lib.a(u_signal_names.o)
                0x0000000000436444                get_signame
 .text.get_signum
                0x000000000043647c       0xa4 libbb/lib.a(u_signal_names.o)
                0x000000000043647c                get_signum
 .text.forkexit_or_rexec
                0x0000000000436520       0x38 libbb/lib.a(vfork_daemon_rexec.o)
                0x0000000000436520                forkexit_or_rexec
 .text.bb_daemonize_or_rexec
                0x0000000000436558      0x108 libbb/lib.a(vfork_daemon_rexec.o)
                0x0000000000436558                bb_daemonize_or_rexec
 .text.bb_sanitize_stdio
                0x0000000000436660        0xc libbb/lib.a(vfork_daemon_rexec.o)
                0x0000000000436660                bb_sanitize_stdio
 .text.safe_waitpid
                0x000000000043666c       0x84 libbb/lib.a(vfork_daemon_rexec.o)
                0x000000000043666c                safe_waitpid
 .text.wait_any_nohang
                0x00000000004366f0       0x14 libbb/lib.a(vfork_daemon_rexec.o)
                0x00000000004366f0                wait_any_nohang
 .text.xfopen_for_read
                0x0000000000436704       0x10 libbb/lib.a(wfopen.o)
                0x0000000000436704                xfopen_for_read
 .text.fopen_for_read
                0x0000000000436714       0x10 libbb/lib.a(wfopen.o)
                0x0000000000436714                fopen_for_read
 .text.fopen_or_warn
                0x0000000000436724       0x44 libbb/lib.a(wfopen.o)
                0x0000000000436724                fopen_or_warn
 .text.open_or_warn_stdin
                0x0000000000436768       0x3c libbb/lib.a(wfopen_input.o)
                0x0000000000436768                open_or_warn_stdin
 .text.fopen_or_warn_stdin
                0x00000000004367a4       0x44 libbb/lib.a(wfopen_input.o)
                0x00000000004367a4                fopen_or_warn_stdin
 .text.xfopen_stdin
                0x00000000004367e8       0x28 libbb/lib.a(wfopen_input.o)
                0x00000000004367e8                xfopen_stdin
 .text.xstrtoul_range_sfx
                0x0000000000436810      0x164 libbb/lib.a(xatonum.o)
                0x0000000000436810                xstrtoul_range_sfx
 .text.xstrtol_range_sfx
                0x0000000000436974       0xc8 libbb/lib.a(xatonum.o)
                0x0000000000436974                xstrtol_range_sfx
 .text.xatol_range
                0x0000000000436a3c       0x28 libbb/lib.a(xatonum.o)
                0x0000000000436a3c                xatol_range
 .text.xatoul_sfx
                0x0000000000436a64       0x28 libbb/lib.a(xatonum.o)
                0x0000000000436a64                xatoul_sfx
 .text.xatoul   0x0000000000436a8c        0xc libbb/lib.a(xatonum.o)
                0x0000000000436a8c                xatoul
 .text.xatoul_range
                0x0000000000436a98       0x28 libbb/lib.a(xatonum.o)
                0x0000000000436a98                xatoul_range
 .text.xatou16  0x0000000000436ac0       0x24 libbb/lib.a(xatonum.o)
                0x0000000000436ac0                xatou16
 .text.xatoi_u  0x0000000000436ae4       0x14 libbb/lib.a(xatonum.o)
                0x0000000000436ae4                xatoi_u
 .text.set_nport
                0x0000000000436af8       0x24 libbb/lib.a(xconnect.o)
                0x0000000000436af8                set_nport
 .text.sockaddr2str
                0x0000000000436b1c       0xe4 libbb/lib.a(xconnect.o)
 .text.xmalloc_sockaddr2dotted_noport
                0x0000000000436c00        0xc libbb/lib.a(xconnect.o)
                0x0000000000436c00                xmalloc_sockaddr2dotted_noport
 .text.xmalloc_sockaddr2host_noport
                0x0000000000436c0c        0xc libbb/lib.a(xconnect.o)
                0x0000000000436c0c                xmalloc_sockaddr2host_noport
 .text.xsocket_type
                0x0000000000436c18       0xa8 libbb/lib.a(xconnect.o)
                0x0000000000436c18                xsocket_type
 .text.str2sockaddr
                0x0000000000436cc0      0x244 libbb/lib.a(xconnect.o)
 .text.xdotted2sockaddr
                0x0000000000436f04       0x10 libbb/lib.a(xconnect.o)
                0x0000000000436f04                xdotted2sockaddr
 .text.xhost2sockaddr
                0x0000000000436f14       0x10 libbb/lib.a(xconnect.o)
                0x0000000000436f14                xhost2sockaddr
 .text.host2sockaddr
                0x0000000000436f24       0x10 libbb/lib.a(xconnect.o)
                0x0000000000436f24                host2sockaddr
 .text.xhost_and_af2sockaddr
                0x0000000000436f34       0x10 libbb/lib.a(xconnect.o)
                0x0000000000436f34                xhost_and_af2sockaddr
 .text.bb_lookup_port
                0x0000000000436f44       0xb4 libbb/lib.a(xconnect.o)
                0x0000000000436f44                bb_lookup_port
 .text.xconnect
                0x0000000000436ff8       0x64 libbb/lib.a(xconnect.o)
                0x0000000000436ff8                xconnect
 .text.setsockopt_broadcast
                0x000000000043705c       0x30 libbb/lib.a(xconnect.o)
                0x000000000043705c                setsockopt_broadcast
 .text.setsockopt_reuseaddr
                0x000000000043708c       0x30 libbb/lib.a(xconnect.o)
                0x000000000043708c                setsockopt_reuseaddr
 .text.create_and_bind_or_die
                0x00000000004370bc       0xb4 libbb/lib.a(xconnect.o)
 .text.create_and_bind_stream_or_die
                0x0000000000437170        0xc libbb/lib.a(xconnect.o)
                0x0000000000437170                create_and_bind_stream_or_die
 .text.setsockopt_bindtodevice
                0x000000000043717c       0x78 libbb/lib.a(xconnect.o)
                0x000000000043717c                setsockopt_bindtodevice
 .text.smart_ulltoa5
                0x00000000004371f4      0x280 libbb/lib.a(xfuncs.o)
                0x00000000004371f4                smart_ulltoa5
 .text.utoa_to_buf
                0x0000000000437474       0x80 libbb/lib.a(xfuncs.o)
                0x0000000000437474                utoa_to_buf
 .text.itoa_to_buf
                0x00000000004374f4       0x28 libbb/lib.a(xfuncs.o)
                0x00000000004374f4                itoa_to_buf
 .text.utoa     0x000000000043751c       0x34 libbb/lib.a(xfuncs.o)
                0x000000000043751c                utoa
 .text.itoa     0x0000000000437550       0x34 libbb/lib.a(xfuncs.o)
                0x0000000000437550                itoa
 .text.tcsetattr_stdin_TCSANOW
                0x0000000000437584       0x14 libbb/lib.a(xfuncs.o)
                0x0000000000437584                tcsetattr_stdin_TCSANOW
 .text.get_terminal_width_height
                0x0000000000437598      0x104 libbb/lib.a(xfuncs.o)
                0x0000000000437598                get_terminal_width_height
 .text.close_on_exec_on
                0x000000000043769c       0x10 libbb/lib.a(xfuncs.o)
                0x000000000043769c                close_on_exec_on
 .text.ndelay_off
                0x00000000004376ac       0x38 libbb/lib.a(xfuncs.o)
                0x00000000004376ac                ndelay_off
 .text.ndelay_on
                0x00000000004376e4       0x34 libbb/lib.a(xfuncs.o)
                0x00000000004376e4                ndelay_on
 .text.xrealloc_getcwd_or_warn
                0x0000000000437718       0xc0 libbb/lib.a(xgetcwd.o)
                0x0000000000437718                xrealloc_getcwd_or_warn
 .text.xgethostbyname
                0x00000000004377d8       0x30 libbb/lib.a(xgethostbyname.o)
                0x00000000004377d8                xgethostbyname
 .text.xmalloc_readlink
                0x0000000000437808       0x94 libbb/lib.a(xreadlink.o)
                0x0000000000437808                xmalloc_readlink
 .text.xmalloc_readlink_or_warn
                0x000000000043789c       0x38 libbb/lib.a(xreadlink.o)
                0x000000000043789c                xmalloc_readlink_or_warn
 .text.xmalloc_follow_symlinks
                0x00000000004378d4      0x110 libbb/lib.a(xreadlink.o)
                0x00000000004378d4                xmalloc_follow_symlinks
 .text.xrealloc_vector_helper
                0x00000000004379e4       0x80 libbb/lib.a(xrealloc_vector.o)
                0x00000000004379e4                xrealloc_vector_helper
 .text.regcomp_or_errmsg
                0x0000000000437a64       0x7c libbb/lib.a(xregcomp.o)
                0x0000000000437a64                regcomp_or_errmsg
 .text.xregcomp
                0x0000000000437ae0       0x3c libbb/lib.a(xregcomp.o)
                0x0000000000437ae0                xregcomp
 .text.bb_ask_confirmation
                0x0000000000437b1c      0x100 libbb/lib.a(ask_confirmation.o)
                0x0000000000437b1c                bb_ask_confirmation
 .text.askpass_timeout
                0x0000000000437c1c        0x8 libbb/lib.a(bb_askpass.o)
 .text.bb_askpass
                0x0000000000437c24      0x1b8 libbb/lib.a(bb_askpass.o)
                0x0000000000437c24                bb_askpass
 .text.bb_getug
                0x0000000000437ddc       0x80 libbb/lib.a(bb_pwd.o)
 .text.bb_getgrgid
                0x0000000000437e5c       0x54 libbb/lib.a(bb_pwd.o)
                0x0000000000437e5c                bb_getgrgid
 .text.bb_getpwuid
                0x0000000000437eb0       0x54 libbb/lib.a(bb_pwd.o)
                0x0000000000437eb0                bb_getpwuid
 .text.qsort_string_vector
                0x0000000000437f04       0x14 libbb/lib.a(bb_qsort.o)
                0x0000000000437f04                qsort_string_vector
 .text.bb_pstrcmp
                0x0000000000437f18       0x10 libbb/lib.a(bb_qsort.o)
                0x0000000000437f18                bb_pstrcmp
 .text.concat_subpath_file
                0x0000000000437f28       0x44 libbb/lib.a(concat_subpath_file.o)
                0x0000000000437f28                concat_subpath_file
 .text.bb_herror_msg_and_die
                0x0000000000437f6c       0x4c libbb/lib.a(herror_msg_and_die.o)
                0x0000000000437f6c                bb_herror_msg_and_die
 *(SORT(.gnu.warning))
 *(SORT(.mips16.fn.*))
 *(SORT(.mips16.call.*))

.MIPS.stubs     0x0000000000437fb8       0x20
 .MIPS.stubs    0x0000000000437fb8       0x20 /data/xiaoning/RealTek/HN120/toolchain/msdk-4.4.7-mips-EL-3.10-u0.9.33-m32t-140827/bin/../lib/gcc/mips-linux-uclibc/4.4.7/../../../../mips-linux-uclibc/lib/crt1.o
                0x0000000000437fb8                __uClibc_main

.fini           0x0000000000437fd8       0x38
 *(SORT(.fini))
 .fini          0x0000000000437fd8       0x1c /data/xiaoning/RealTek/HN120/toolchain/msdk-4.4.7-mips-EL-3.10-u0.9.33-m32t-140827/bin/../lib/gcc/mips-linux-uclibc/4.4.7/../../../../mips-linux-uclibc/lib/crti.o
                0x0000000000437fd8                _fini
 .fini          0x0000000000437ff4       0x10 /data/xiaoning/RealTek/HN120/toolchain/msdk-4.4.7-mips-EL-3.10-u0.9.33-m32t-140827/bin/../lib/gcc/mips-linux-uclibc/4.4.7/soft-float/el/crtbegin.o
 .fini          0x0000000000438004        0xc /data/xiaoning/RealTek/HN120/toolchain/msdk-4.4.7-mips-EL-3.10-u0.9.33-m32t-140827/bin/../lib/gcc/mips-linux-uclibc/4.4.7/../../../../mips-linux-uclibc/lib/crtn.o
                0x0000000000438010                PROVIDE (__etext, .)
                0x0000000000438010                PROVIDE (_etext, .)
                0x0000000000438010                PROVIDE (etext, .)

.rodata         0x0000000000438010     0x5d3a
 *(SORT(.rodata) SORT(.rodata.*) SORT(.gnu.linkonce.r.*))
 .rodata        0x0000000000438010       0x10 networking/lib.a(ifconfig.o)
 .rodata        0x0000000000438020       0x80 shell/lib.a(ash.o)
 .rodata        0x00000000004380a0       0x20 coreutils/lib.a(ls.o)
 .rodata        0x00000000004380c0       0x40 /data/xiaoning/RealTek/HN120/toolchain/msdk-4.4.7-mips-EL-3.10-u0.9.33-m32t-140827/bin/../lib/gcc/mips-linux-uclibc/4.4.7/soft-float/el/libgcc.a(divdf3.o)
 .rodata        0x0000000000438100       0x40 /data/xiaoning/RealTek/HN120/toolchain/msdk-4.4.7-mips-EL-3.10-u0.9.33-m32t-140827/bin/../lib/gcc/mips-linux-uclibc/4.4.7/soft-float/el/libgcc.a(muldf3.o)
 .rodata.cst8   0x0000000000438140       0x18 editors/lib.a(awk.o)
 .rodata.cst8   0x0000000000438158        0x8 /data/xiaoning/RealTek/HN120/toolchain/msdk-4.4.7-mips-EL-3.10-u0.9.33-m32t-140827/bin/../lib/gcc/mips-linux-uclibc/4.4.7/soft-float/el/libgcc.a(_fixunsdfsi.o)
 .rodata.str1.4
                0x0000000000438160      0x244 libbb/lib.a(appletlib.o)
                                        0x248 (size before relaxing)
 .rodata.applet_main
                0x00000000004383a4       0xd8 libbb/lib.a(appletlib.o)
                0x00000000004383a4                applet_main
 .rodata.const_int_1
                0x000000000043847c        0x4 libbb/lib.a(messages.o)
                0x000000000043847c                const_int_1
 .rodata.const_int_0
                0x0000000000438480        0x4 libbb/lib.a(messages.o)
                0x0000000000438480                const_int_0
 .rodata.str1.4
                0x0000000000000000      0x244 libbb/lib.a(verror_msg.o)
                                          0xc (size before relaxing)
 .rodata.str1.4
                0x0000000000438484      0x12f libbb/lib.a(xfuncs_printf.o)
                                        0x130 (size before relaxing)
 .rodata.str1.4
                0x0000000000000000        0x4 libbb/lib.a(perror_msg.o)
 .rodata.str1.4
                0x0000000000000000        0x4 libbb/lib.a(perror_msg_and_die.o)
 *fill*         0x00000000004385b3        0x1 
 .rodata.str1.4
                0x00000000004385b4       0x33 libbb/lib.a(read.o)
                                         0x34 (size before relaxing)
 *fill*         0x00000000004385e7        0x1 
 .rodata.str1.4
                0x00000000004385e8        0x5 libbb/lib.a(safe_poll.o)
                                          0x8 (size before relaxing)
 *fill*         0x00000000004385ed        0x3 
 .rodata.str1.4
                0x00000000004385f0       0xfd loginutils/lib.a(login.o)
                                        0x100 (size before relaxing)
 *fill*         0x00000000004386ed        0x3 
 .rodata.str1.4
                0x00000000004386f0       0xb4 modutils/lib.a(depmod.o)
                                         0xd0 (size before relaxing)
 .rodata.str1.4
                0x00000000004387a4       0x17 modutils/lib.a(insmod.o)
                                         0x18 (size before relaxing)
 *fill*         0x00000000004387bb        0x1 
 .rodata.str1.4
                0x00000000004387bc       0x3e modutils/lib.a(lsmod.o)
                                         0x44 (size before relaxing)
 *fill*         0x00000000004387fa        0x2 
 .rodata.str1.4
                0x00000000004387fc       0xa1 modutils/lib.a(modprobe.o)
                                        0x118 (size before relaxing)
 *fill*         0x000000000043889d        0x3 
 .rodata.str1.4
                0x00000000004388a0       0xac modutils/lib.a(modutils.o)
                                         0xb0 (size before relaxing)
 .rodata.str1.4
                0x000000000043894c       0x1f modutils/lib.a(rmmod.o)
                                         0x28 (size before relaxing)
 *fill*         0x000000000043896b        0x1 
 .rodata.str1.4
                0x000000000043896c       0x13 networking/lib.a(hostname.o)
                                         0x1c (size before relaxing)
 *fill*         0x000000000043897f        0x1 
 .rodata.str1.4
                0x0000000000438980      0x14c networking/lib.a(ifconfig.o)
 .rodata.OptArray
                0x0000000000438acc       0x98 networking/lib.a(ifconfig.o)
 .rodata.Arg1Opt
                0x0000000000438b64       0x58 networking/lib.a(ifconfig.o)
 .rodata.str1.4
                0x0000000000438bbc      0x4a5 networking/lib.a(interface.o)
                                        0x4cc (size before relaxing)
 *fill*         0x0000000000439061        0x3 
 .rodata.ss_fmt
                0x0000000000439064        0xc networking/lib.a(interface.o)
 .rodata.if_port_text
                0x0000000000439070       0x20 networking/lib.a(interface.o)
 .rodata.aftypes
                0x0000000000439090       0x10 networking/lib.a(interface.o)
 .rodata.hwtypes
                0x00000000004390a0       0x18 networking/lib.a(interface.o)
 .rodata.inet_aftype
                0x00000000004390b8       0x2c networking/lib.a(interface.o)
 .rodata.inet6_aftype
                0x00000000004390e4       0x2c networking/lib.a(interface.o)
 .rodata.unspec_aftype
                0x0000000000439110       0x2c networking/lib.a(interface.o)
 .rodata.loop_hwtype
                0x000000000043913c       0x20 networking/lib.a(interface.o)
 .rodata.ether_hwtype
                0x000000000043915c       0x20 networking/lib.a(interface.o)
 .rodata.ppp_hwtype
                0x000000000043917c       0x20 networking/lib.a(interface.o)
 .rodata.unspec_hwtype
                0x000000000043919c       0x20 networking/lib.a(interface.o)
 .rodata.sit_hwtype
                0x00000000004391bc       0x20 networking/lib.a(interface.o)
 .rodata.str1.4
                0x00000000004391dc      0x307 networking/lib.a(ping.o)
                                        0x308 (size before relaxing)
 *fill*         0x00000000004394e3        0x1 
 .rodata.CSWTCH.52
                0x00000000004394e4       0x4c networking/lib.a(ping.o)
 .rodata.str1.4
                0x0000000000439530      0x27f networking/lib.a(route.o)
                                        0x29c (size before relaxing)
 *fill*         0x00000000004397af        0x1 
 .rodata.flagvals
                0x00000000004397b0       0x20 networking/lib.a(route.o)
 .rodata.flags_ipvx
                0x00000000004397d0       0x10 networking/lib.a(route.o)
 .rodata.str1.4
                0x00000000004397e0       0x2f networking/lib.a(telnetd.o)
                                         0x30 (size before relaxing)
 *fill*         0x000000000043980f        0x1 
 .rodata.str1.4
                0x0000000000439810       0x5e networking/lib.a(tftp.o)
                                         0x64 (size before relaxing)
 *fill*         0x000000000043986e        0x2 
 .rodata.str1.4
                0x0000000000439870      0x293 networking/lib.a(traceroute.o)
                                        0x2cc (size before relaxing)
 *fill*         0x0000000000439b03        0x1 
 .rodata.traceroute_main
                0x0000000000439b04       0x40 networking/lib.a(traceroute.o)
 .rodata.str1.4
                0x0000000000439b44      0x137 networking/lib.a(vconfig.o)
                                        0x138 (size before relaxing)
 *fill*         0x0000000000439c7b        0x1 
 .rodata.str1.4
                0x0000000000439c7c       0x10 networking/libiproute/lib.a(ip_parse_common_args.o)
 .rodata.af_numbers.7275
                0x0000000000439c8c        0x4 networking/libiproute/lib.a(ip_parse_common_args.o)
 .rodata.str1.4
                0x0000000000439c90      0x35c networking/libiproute/lib.a(iptunnel.o)
                                        0x380 (size before relaxing)
 .rodata.str1.4
                0x0000000000439fec      0x101 networking/libiproute/lib.a(rt_names.o)
                                        0x118 (size before relaxing)
 *fill*         0x000000000043a0ed        0x3 
 .rodata.str1.4
                0x000000000043a0f0      0x10b networking/libiproute/lib.a(utils.o)
                                        0x118 (size before relaxing)
 *fill*         0x000000000043a1fb        0x1 
 .rodata.str1.4
                0x000000000043a1fc       0x86 procps/lib.a(free.o)
                                         0x94 (size before relaxing)
 *fill*         0x000000000043a282        0x2 
 .rodata.str1.4
                0x000000000043a284       0xa3 procps/lib.a(kill.o)
                                         0xa4 (size before relaxing)
 *fill*         0x000000000043a327        0x1 
 .rodata.str1.4
                0x000000000043a328       0x43 procps/lib.a(ps.o)
                                         0x44 (size before relaxing)
 *fill*         0x000000000043a36b        0x1 
 .rodata.str1.4
                0x000000000043a36c       0x1e procps/lib.a(renice.o)
                                         0x20 (size before relaxing)
 *fill*         0x000000000043a38a        0x2 
 .rodata.str1.4
                0x000000000043a38c      0x315 procps/lib.a(top.o)
                                        0x338 (size before relaxing)
 *fill*         0x000000000043a6a1        0x3 
 .rodata.fmt.6448
                0x000000000043a6a4       0x30 procps/lib.a(top.o)
 .rodata.str1.4
                0x000000000043a6d4       0x67 procps/lib.a(uptime.o)
                                         0x70 (size before relaxing)
 *fill*         0x000000000043a73b        0x1 
 .rodata.calcsize
                0x000000000043a73c       0x6c shell/lib.a(ash.o)
 .rodata.copynode
                0x000000000043a7a8       0x6c shell/lib.a(ash.o)
 .rodata.str1.4
                0x000000000043a814      0x9df shell/lib.a(ash.o)
                                        0xa38 (size before relaxing)
 *fill*         0x000000000043b1f3        0x1 
 .rodata.cmdtxt
                0x000000000043b1f4       0x6c shell/lib.a(ash.o)
 .rodata.readtoken1
                0x000000000043b260       0x3c shell/lib.a(ash.o)
 .rodata.parse_command
                0x000000000043b29c       0x88 shell/lib.a(ash.o)
 .rodata.redirect
                0x000000000043b324       0x18 shell/lib.a(ash.o)
 .rodata.evaltree
                0x000000000043b33c       0x3c shell/lib.a(ash.o)
 .rodata.argstr
                0x000000000043b378       0x20 shell/lib.a(ash.o)
 .rodata.S_I_T  0x000000000043b398       0x30 shell/lib.a(ash.o)
 .rodata.optletters_optnames
                0x000000000043b3c8       0x38 shell/lib.a(ash.o)
 .rodata.vstype.8769
                0x000000000043b400       0x30 shell/lib.a(ash.o)
 .rodata.nodesize
                0x000000000043b430       0x38 shell/lib.a(ash.o)
 .rodata.tokname_array
                0x000000000043b468       0x74 shell/lib.a(ash.o)
 .rodata.builtintab
                0x000000000043b4dc      0x140 shell/lib.a(ash.o)
 .rodata.limits_tbl
                0x000000000043b61c       0x24 shell/lib.a(ash.o)
 .rodata.limits_name
                0x000000000043b640       0x80 shell/lib.a(ash.o)
 .rodata.arg_REPLY.14615
                0x000000000043b6c0        0x8 shell/lib.a(ash.o)
 .rodata.null_bltin.12193
                0x000000000043b6c8        0x8 shell/lib.a(ash.o)
 .rodata.varinit_data
                0x000000000043b6d0       0x3c shell/lib.a(ash.o)
 .rodata.CSWTCH.917
                0x000000000043b70c       0x30 shell/lib.a(ash.o)
 .rodata.CSWTCH.919
                0x000000000043b73c        0x8 shell/lib.a(ash.o)
 .rodata.str1.4
                0x000000000043b744       0x4b sysklogd/lib.a(klogd.o)
                                         0x58 (size before relaxing)
 *fill*         0x000000000043b78f        0x1 
 .rodata.str1.4
                0x000000000043b790      0x1d6 sysklogd/lib.a(syslogd_and_logger.o)
                                        0x1f4 (size before relaxing)
 *fill*         0x000000000043b966        0x2 
 .rodata.prioritynames
                0x000000000043b968       0x68 sysklogd/lib.a(syslogd_and_logger.o)
                0x000000000043b968                prioritynames
 .rodata.facilitynames
                0x000000000043b9d0       0xb8 sysklogd/lib.a(syslogd_and_logger.o)
                0x000000000043b9d0                facilitynames
 .rodata.init_data
                0x000000000043ba88       0x48 sysklogd/lib.a(syslogd_and_logger.o)
 .rodata.str1.4
                0x000000000043bad0      0x124 util-linux/lib.a(mount.o)
                                        0x130 (size before relaxing)
 .rodata.mount_option_str
                0x000000000043bbf4       0x10 util-linux/lib.a(mount.o)
 .rodata.mount_options
                0x000000000043bc04        0xc util-linux/lib.a(mount.o)
 .rodata.filesystems.6494
                0x000000000043bc10       0x24 util-linux/lib.a(mount.o)
 .rodata.str1.4
                0x000000000043bc34       0x66 util-linux/lib.a(umount.o)
                                         0x70 (size before relaxing)
 *fill*         0x000000000043bc9a        0x2 
 .rodata.str1.4
                0x000000000043bc9c       0x68 archival/lib.a(bbunzip.o)
 .rodata.str1.4
                0x000000000043bd04       0x2a archival/libunarchive/lib.a(decompress_bunzip2.o)
                                         0x38 (size before relaxing)
 .rodata.str1.4
                0x0000000000000000       0x2a coreutils/lib.a(cat.o)
                                          0x4 (size before relaxing)
 *fill*         0x000000000043bd2e        0x2 
 .rodata.str1.4
                0x000000000043bd30       0x19 coreutils/lib.a(chmod.o)
                                         0x1c (size before relaxing)
 *fill*         0x000000000043bd49        0x3 
 .rodata.str1.4
                0x000000000043bd4c       0x2d coreutils/lib.a(cp.o)
                                         0x30 (size before relaxing)
 *fill*         0x000000000043bd79        0x3 
 .rodata.str1.4
                0x000000000043bd7c       0xde coreutils/lib.a(cut.o)
                                         0xe8 (size before relaxing)
 *fill*         0x000000000043be5a        0x2 
 .rodata.str1.4
                0x000000000043be5c       0xe2 coreutils/lib.a(date.o)
                                         0xec (size before relaxing)
 *fill*         0x000000000043bf3e        0x2 
 .rodata.str1.4
                0x000000000043bf40        0x4 coreutils/lib.a(echo.o)
 .rodata.str1.4
                0x000000000043bf44       0xf9 coreutils/lib.a(expr.o)
                                        0x128 (size before relaxing)
 .rodata.str1.4
                0x0000000000000000        0x4 coreutils/lib.a(head.o)
 *fill*         0x000000000043c03d        0x3 
 .rodata.str1.4
                0x000000000043c040       0x11 coreutils/lib.a(ln.o)
                                         0x14 (size before relaxing)
 *fill*         0x000000000043c051        0x3 
 .rodata.str1.4
                0x000000000043c054       0x7d coreutils/lib.a(ls.o)
                                         0x8c (size before relaxing)
 *fill*         0x000000000043c0d1        0x3 
 .rodata.opt_flags
                0x000000000043c0d4       0x64 coreutils/lib.a(ls.o)
 .rodata.str1.4
                0x000000000043c138       0x16 coreutils/lib.a(mkdir.o)
                                         0x18 (size before relaxing)
 *fill*         0x000000000043c14e        0x2 
 .rodata.str1.4
                0x000000000043c150       0x67 coreutils/lib.a(printf.o)
                                         0x6c (size before relaxing)
 *fill*         0x000000000043c1b7        0x1 
 .rodata.str1.4
                0x000000000043c1b8       0x2a coreutils/lib.a(rm.o)
                                         0x2c (size before relaxing)
 *fill*         0x000000000043c1e2        0x2 
 .rodata.str1.4
                0x000000000043c1e4       0x11 coreutils/lib.a(tail.o)
                                         0x14 (size before relaxing)
 *fill*         0x000000000043c1f5        0x3 
 .rodata.tail_suffixes
                0x000000000043c1f8       0x20 coreutils/lib.a(tail.o)
 .rodata.str1.4
                0x000000000043c218       0x68 coreutils/lib.a(test.o)
                                         0x80 (size before relaxing)
 .rodata.ops    0x000000000043c280       0xf0 coreutils/lib.a(test.o)
 .rodata.no_op.6431
                0x000000000043c370        0x8 coreutils/lib.a(test.o)
 .rodata.str1.4
                0x000000000043c378        0xd coreutils/lib.a(wc.o)
                                         0x28 (size before relaxing)
 *fill*         0x000000000043c385        0x3 
 .rodata.str1.4
                0x000000000043c388       0x11 coreutils/libcoreutils/lib.a(cp_mv_stat.o)
                                         0x14 (size before relaxing)
 *fill*         0x000000000043c399        0x3 
 .rodata.str1.4
                0x000000000043c39c       0xe4 editors/lib.a(awk.o)
                                        0x100 (size before relaxing)
 .rodata.evaluate
                0x000000000043c480      0x144 editors/lib.a(awk.o)
 .rodata.tokeninfo
                0x000000000043c5c4      0x18c editors/lib.a(awk.o)
 .rodata.str1.4
                0x000000000043c750       0x4d findutils/lib.a(grep.o)
                                         0x60 (size before relaxing)
 *fill*         0x000000000043c79d        0x3 
 .rodata.str1.4
                0x000000000043c7a0       0x13 init/lib.a(halt.o)
                                         0x14 (size before relaxing)
 *fill*         0x000000000043c7b3        0x1 
 .rodata.signals.6346
                0x000000000043c7b4        0x4 init/lib.a(halt.o)
 .rodata.magic.6345
                0x000000000043c7b8        0xc init/lib.a(halt.o)
 .rodata.str1.4
                0x000000000043c7c4      0x23b init/lib.a(init.o)
                                        0x274 (size before relaxing)
 *fill*         0x000000000043c9ff        0x1 
 .rodata.str1.4
                0x000000000043ca00       0x11 libbb/lib.a(change_identity.o)
                                         0x14 (size before relaxing)
 *fill*         0x000000000043ca11        0x3 
 .rodata.str1.4
                0x000000000043ca14        0x7 libbb/lib.a(concat_path_file.o)
                                         0x10 (size before relaxing)
 *fill*         0x000000000043ca1b        0x1 
 .rodata.str1.4
                0x000000000043ca1c      0x15e libbb/lib.a(copy_file.o)
                                        0x18c (size before relaxing)
 *fill*         0x000000000043cb7a        0x2 
 .rodata.str1.4
                0x000000000043cb7c        0xf libbb/lib.a(correct_password.o)
                                         0x10 (size before relaxing)
 .rodata.str1.4
                0x0000000000000000        0x4 libbb/lib.a(getopt32.o)
 *fill*         0x000000000043cb8b        0x1 
 .rodata.bb_argv_dash
                0x000000000043cb8c        0x8 libbb/lib.a(getopt32.o)
                0x000000000043cb8c                bb_argv_dash
 .rodata.str1.4
                0x000000000043cb94       0x48 libbb/lib.a(getpty.o)
 .rodata.str1.4
                0x000000000043cbdc       0x28 libbb/lib.a(inet_common.o)
                                         0x2c (size before relaxing)
 .rodata.str1.4
                0x0000000000000000        0x4 libbb/lib.a(inode_hash.o)
 .rodata.str1.4
                0x000000000043cc04       0x54 libbb/lib.a(lineedit.o)
                                         0x5c (size before relaxing)
 .rodata.str1.4
                0x000000000043cc58        0x9 libbb/lib.a(login.o)
                                         0x10 (size before relaxing)
 *fill*         0x000000000043cc61        0x3 
 .rodata.str1.4
                0x000000000043cc64       0x35 libbb/lib.a(make_directory.o)
                                         0x38 (size before relaxing)
 *fill*         0x000000000043cc99        0x3 
 .rodata.type_chars
                0x000000000043cc9c       0x10 libbb/lib.a(mode_string.o)
 .rodata.mode_chars
                0x000000000043ccac        0x8 libbb/lib.a(mode_string.o)
 .rodata.str1.4
                0x000000000043ccb4       0x28 libbb/lib.a(parse_config.o)
 .rodata.perm_mask.6341
                0x000000000043ccdc       0x18 libbb/lib.a(parse_mode.o)
 .rodata.who_mask.6340
                0x000000000043ccf4       0x10 libbb/lib.a(parse_mode.o)
 .rodata.str1.4
                0x000000000043cd04       0x85 libbb/lib.a(procps.o)
                                         0xac (size before relaxing)
 *fill*         0x000000000043cd89        0x3 
 .rodata.str1.4
                0x000000000043cd8c       0x7a libbb/lib.a(remove_file.o)
                                         0xa4 (size before relaxing)
 *fill*         0x000000000043ce06        0x2 
 .rodata.str1.4
                0x000000000043ce08       0x12 libbb/lib.a(run_shell.o)
                                         0x18 (size before relaxing)
 *fill*         0x000000000043ce1a        0x2 
 .rodata.str1.4
                0x000000000043ce1c        0x2 libbb/lib.a(safe_gethostname.o)
                                          0x4 (size before relaxing)
 *fill*         0x000000000043ce1e        0x2 
 .rodata.str1.4
                0x000000000043ce20       0x42 libbb/lib.a(setup_environment.o)
                                         0x58 (size before relaxing)
 *fill*         0x000000000043ce62        0x2 
 .rodata.str1.4
                0x000000000043ce64        0x4 libbb/lib.a(u_signal_names.o)
 .rodata.signals
                0x000000000043ce68       0xe0 libbb/lib.a(u_signal_names.o)
 .rodata.str1.4
                0x000000000043cf48        0x5 libbb/lib.a(vfork_daemon_rexec.o)
                                          0xc (size before relaxing)
 .rodata.str1.4
                0x0000000000000000        0x8 libbb/lib.a(wfopen.o)
 .rodata.str1.4
                0x0000000000000000        0x4 libbb/lib.a(wfopen_input.o)
 *fill*         0x000000000043cf4d        0x3 
 .rodata.str1.4
                0x000000000043cf50       0x61 libbb/lib.a(xatonum.o)
                                         0x64 (size before relaxing)
 *fill*         0x000000000043cfb1        0x3 
 .rodata.str1.4
                0x000000000043cfb4       0x7b libbb/lib.a(xconnect.o)
                                         0x7c (size before relaxing)
 *fill*         0x000000000043d02f        0x1 
 .rodata.str1.4
                0x000000000043d030       0x28 libbb/lib.a(xfuncs.o)
 .rodata.str1.4
                0x000000000043d058        0x7 libbb/lib.a(xgetcwd.o)
                                          0x8 (size before relaxing)
 .rodata.str1.4
                0x0000000000000000        0x4 libbb/lib.a(xgethostbyname.o)
 *fill*         0x000000000043d05f        0x1 
 .rodata.str1.4
                0x000000000043d060       0x26 libbb/lib.a(xreadlink.o)
                                         0x28 (size before relaxing)
 *fill*         0x000000000043d086        0x2 
 .rodata.str1.4
                0x000000000043d088       0x13 libbb/lib.a(xregcomp.o)
                                         0x14 (size before relaxing)
 *fill*         0x000000000043d09b        0x1 
 .rodata.str1.4
                0x000000000043d09c       0x2c libbb/lib.a(bb_pwd.o)
                                         0x40 (size before relaxing)
 .rodata.applet_nameofs
                0x000000000043d0c8       0x6c libbb/lib.a(appletlib.o)
                0x000000000043d0c8                applet_nameofs
 .rodata.ife_print_flags_mask.7067
                0x000000000043d134       0x1a networking/lib.a(interface.o)
 .rodata.permmask.14726
                0x000000000043d14e       0x12 shell/lib.a(ash.o)
 .rodata.PRIMES
                0x000000000043d160        0xa editors/lib.a(awk.o)
 .rodata.applet_names
                0x000000000043d16a      0x137 libbb/lib.a(appletlib.o)
                0x000000000043d16a                applet_names
 .rodata.bb_banner
                0x000000000043d2a1       0x2a libbb/lib.a(messages.o)
                0x000000000043d2a1                bb_banner
 .rodata.bb_msg_memory_exhausted
                0x000000000043d2cb       0x11 libbb/lib.a(messages.o)
                0x000000000043d2cb                bb_msg_memory_exhausted
 .rodata.bb_msg_invalid_date
                0x000000000043d2dc       0x12 libbb/lib.a(messages.o)
                0x000000000043d2dc                bb_msg_invalid_date
 .rodata.bb_msg_write_error
                0x000000000043d2ee        0xc libbb/lib.a(messages.o)
                0x000000000043d2ee                bb_msg_write_error
 .rodata.bb_msg_read_error
                0x000000000043d2fa        0xb libbb/lib.a(messages.o)
                0x000000000043d2fa                bb_msg_read_error
 .rodata.bb_msg_can_not_create_raw_socket
                0x000000000043d305       0x18 libbb/lib.a(messages.o)
                0x000000000043d305                bb_msg_can_not_create_raw_socket
 .rodata.bb_msg_perm_denied_are_you_root
                0x000000000043d31d       0x23 libbb/lib.a(messages.o)
                0x000000000043d31d                bb_msg_perm_denied_are_you_root
 .rodata.bb_msg_requires_arg
                0x000000000043d340       0x18 libbb/lib.a(messages.o)
                0x000000000043d340                bb_msg_requires_arg
 .rodata.bb_msg_invalid_arg
                0x000000000043d358       0x1e libbb/lib.a(messages.o)
                0x000000000043d358                bb_msg_invalid_arg
 .rodata.bb_msg_standard_input
                0x000000000043d376        0xf libbb/lib.a(messages.o)
                0x000000000043d376                bb_msg_standard_input
 .rodata.bb_msg_standard_output
                0x000000000043d385       0x10 libbb/lib.a(messages.o)
                0x000000000043d385                bb_msg_standard_output
 .rodata.bb_str_default
                0x000000000043d395        0x8 libbb/lib.a(messages.o)
                0x000000000043d395                bb_str_default
 .rodata.bb_path_motd_file
                0x000000000043d39d        0xa libbb/lib.a(messages.o)
                0x000000000043d39d                bb_path_motd_file
 .rodata.bb_dev_null
                0x000000000043d3a7        0xa libbb/lib.a(messages.o)
                0x000000000043d3a7                bb_dev_null
 .rodata.bb_busybox_exec_path
                0x000000000043d3b1        0xf libbb/lib.a(messages.o)
                0x000000000043d3b1                bb_busybox_exec_path
 .rodata.bb_default_login_shell
                0x000000000043d3c0        0x9 libbb/lib.a(messages.o)
                0x000000000043d3c0                bb_default_login_shell
 .rodata.bb_PATH_root_path
                0x000000000043d3c9       0x23 libbb/lib.a(messages.o)
                0x000000000043d3c9                bb_PATH_root_path
 .rodata.ife_print_flags_strs.7066
                0x000000000043d3ec       0x6a networking/lib.a(interface.o)
 .rodata.TRext  0x000000000043d456        0xf networking/lib.a(interface.o)
 .rodata.keywords.7290
                0x000000000043d465        0xd networking/lib.a(ip.o)
 .rodata.tbl_verb
                0x000000000043d472       0x15 networking/lib.a(route.o)
 .rodata.flagchars
                0x000000000043d487        0x9 networking/lib.a(route.o)
 .rodata.tbl_ipvx
                0x000000000043d490       0x68 networking/lib.a(route.o)
 .rodata.tbl_hash_net_host
                0x000000000043d4f8        0xf networking/lib.a(route.o)
 .rodata.iacs_to_send.6468
                0x000000000043d507        0xf networking/lib.a(telnetd.o)
 .rodata.errcode_str.6391
                0x000000000043d516       0x79 networking/lib.a(tftp.o)
 .rodata.conf_file_name
                0x000000000043d58f       0x16 networking/lib.a(vconfig.o)
 .rodata.cmds   0x000000000043d5a5       0x50 networking/lib.a(vconfig.o)
 .rodata.name_types
                0x000000000043d5f5       0x4c networking/lib.a(vconfig.o)
 .rodata.families.7280
                0x000000000043d641       0x11 networking/libiproute/lib.a(ip_parse_common_args.o)
 .rodata.ip_common_commands.7268
                0x000000000043d652       0x16 networking/libiproute/lib.a(ip_parse_common_args.o)
 .rodata.keywords.8377
                0x000000000043d668       0x21 networking/libiproute/lib.a(iptunnel.o)
 .rodata.keywords.7544
                0x000000000043d689       0x9b networking/libiproute/lib.a(iptunnel.o)
 .rodata.opts.6357
                0x000000000043d724        0x7 procps/lib.a(renice.o)
 .rodata.Xetpriority_msg.6349
                0x000000000043d72b        0xd procps/lib.a(renice.o)
 .rodata.dolatstr
                0x000000000043d738        0x5 shell/lib.a(ash.o)
 .rodata.spclchars.9808
                0x000000000043d73d        0xa shell/lib.a(ash.o)
 .rodata.homestr
                0x000000000043d747        0x5 shell/lib.a(ash.o)
 .rodata.syntax_index_table.7727
                0x000000000043d74c       0x1a shell/lib.a(ash.o)
 .rodata.spec_symbls.7726
                0x000000000043d766       0x1b shell/lib.a(ash.o)
 .rodata.op_tokens
                0x000000000043d781       0x8d shell/lib.a(ash.o)
 .rodata.defifsvar
                0x000000000043d80e        0x8 shell/lib.a(ash.o)
 .rodata.metachars.10739
                0x000000000043d816        0x4 shell/lib.a(ash.o)
 .rodata.qchars.9490
                0x000000000043d81a        0x3 shell/lib.a(ash.o)
 .rodata.types.13559
                0x000000000043d81d        0x6 shell/lib.a(ash.o)
 .rodata.C_escapes.13449
                0x000000000043d823       0x12 shell/lib.a(ash.o)
 .rodata.xxreadtoken_chars
                0x000000000043d835        0x7 shell/lib.a(ash.o)
 .rodata.xxreadtoken_tokens
                0x000000000043d83c        0xa shell/lib.a(ash.o)
 .rodata.illnum
                0x000000000043d846       0x13 shell/lib.a(ash.o)
 .rodata.permmode.14725
                0x000000000043d859        0x3 shell/lib.a(ash.o)
 .rodata.permuser.14724
                0x000000000043d85c        0x3 shell/lib.a(ash.o)
 .rodata.timescmd_str
                0x000000000043d85f        0x9 shell/lib.a(ash.o)
 .rodata.snlfmt
                0x000000000043d868        0x4 shell/lib.a(ash.o)
 .rodata.optstring
                0x000000000043d86c        0xb coreutils/lib.a(cut.o)
 .rodata._op_on_field.6512
                0x000000000043d877       0x1f coreutils/lib.a(cut.o)
 .rodata.isoformats.6358
                0x000000000043d896       0x1c coreutils/lib.a(date.o)
 .rodata.keywords.6680
                0x000000000043d8b2       0x21 coreutils/lib.a(expr.o)
 .rodata.head_opts
                0x000000000043d8d3        0x3 coreutils/lib.a(head.o)
 .rodata.header_fmt_str
                0x000000000043d8d6        0xd coreutils/lib.a(head.o)
 .rodata.ls_options
                0x000000000043d8e3       0x19 coreutils/lib.a(ls.o)
 .rodata.header_fmt
                0x000000000043d8fc        0xd coreutils/lib.a(tail.o)
 .rodata.vNames
                0x000000000043d909       0x6b editors/lib.a(awk.o)
 .rodata.vValues
                0x000000000043d974       0x18 editors/lib.a(awk.o)
 .rodata.EMSG_INV_FMT
                0x000000000043d98c       0x19 editors/lib.a(awk.o)
 .rodata.EMSG_UNEXP_TOKEN
                0x000000000043d9a5       0x11 editors/lib.a(awk.o)
 .rodata.EMSG_UNEXP_EOS
                0x000000000043d9b6       0x19 editors/lib.a(awk.o)
 .rodata.tokenlist
                0x000000000043d9cf      0x1b9 editors/lib.a(awk.o)
 .rodata.EMSG_NOT_ARRAY
                0x000000000043db88        0xd editors/lib.a(awk.o)
 .rodata.EMSG_POSSIBLE_ERROR
                0x000000000043db95       0x16 editors/lib.a(awk.o)
 .rodata.EMSG_UNDEF_FUNC
                0x000000000043dbab       0x1b editors/lib.a(awk.o)
 .rodata.EMSG_DIV_BY_ZERO
                0x000000000043dbc6       0x11 editors/lib.a(awk.o)
 .rodata.EMSG_TOO_FEW_ARGS
                0x000000000043dbd7       0x1e editors/lib.a(awk.o)
 .rodata.EMSG_INTERNAL_ERROR
                0x000000000043dbf5        0xf editors/lib.a(awk.o)
 .rodata.actions.6707
                0x000000000043dc04       0x40 init/lib.a(init.o)
 .rodata.press_enter.6546
                0x000000000043dc44       0x2f init/lib.a(init.o)
 .rodata.forbid
                0x000000000043dc73       0x96 libbb/lib.a(login.o)
 .rodata.fmtstr_d
                0x000000000043dd09        0xd libbb/lib.a(login.o)
 .rodata.fmtstr_t
                0x000000000043dd16        0x9 libbb/lib.a(login.o)
 .rodata.bb_path_mtab_file
                0x000000000043dd1f        0xd libbb/lib.a(mtab_file.o)
                0x000000000043dd1f                bb_path_mtab_file
 .rodata.perm_chars.6343
                0x000000000043dd2c        0x7 libbb/lib.a(parse_mode.o)
 .rodata.who_chars.6342
                0x000000000043dd33        0x5 libbb/lib.a(parse_mode.o)
 .rodata.charmap.6339
                0x000000000043dd38       0x12 libbb/lib.a(process_escape_sequence.o)

.rodata1
 *(SORT(.rodata1))

.sdata2
 *(SORT(.sdata2) SORT(.sdata2.*) SORT(.gnu.linkonce.s2.*))

.sbss2
 *(SORT(.sbss2) SORT(.sbss2.*) SORT(.gnu.linkonce.sb2.*))

.eh_frame_hdr   0x000000000043dd4c       0x14
 *(SORT(.eh_frame_hdr))
 .eh_frame_hdr  0x000000000043dd4c       0x14 /data/xiaoning/RealTek/HN120/toolchain/msdk-4.4.7-mips-EL-3.10-u0.9.33-m32t-140827/bin/../lib/gcc/mips-linux-uclibc/4.4.7/soft-float/el/libgcc.a(_udivdi3.o)

.eh_frame
 *(SORT(.eh_frame))

.gcc_except_table
 *(SORT(.gcc_except_table) SORT(.gcc_except_table.*))

.exception_ranges
 *(SORT(.exception_ranges) SORT(.exception_ranges*))
                0x000000000043dd60                . = (ALIGN (0x10000) - ((0x10000 - .) & 0xffff))
                0x000000000044e000                . = DATA_SEGMENT_ALIGN (0x10000, 0x1000)

.eh_frame       0x000000000044e000       0x24
 *(SORT(.eh_frame))
 .eh_frame      0x000000000044e000        0x0 /data/xiaoning/RealTek/HN120/toolchain/msdk-4.4.7-mips-EL-3.10-u0.9.33-m32t-140827/bin/../lib/gcc/mips-linux-uclibc/4.4.7/soft-float/el/crtbegin.o
 .eh_frame      0x000000000044e000       0x20 /data/xiaoning/RealTek/HN120/toolchain/msdk-4.4.7-mips-EL-3.10-u0.9.33-m32t-140827/bin/../lib/gcc/mips-linux-uclibc/4.4.7/soft-float/el/libgcc.a(_udivdi3.o)
 .eh_frame      0x000000000044e020        0x4 /data/xiaoning/RealTek/HN120/toolchain/msdk-4.4.7-mips-EL-3.10-u0.9.33-m32t-140827/bin/../lib/gcc/mips-linux-uclibc/4.4.7/soft-float/el/crtend.o

.gcc_except_table
 *(SORT(.gcc_except_table) SORT(.gcc_except_table.*))

.exception_ranges
 *(SORT(.exception_ranges) SORT(.exception_ranges*))

.tdata
 *(SORT(.tdata) SORT(.tdata.*) SORT(.gnu.linkonce.td.*))

.tbss
 *(SORT(.tbss) SORT(.tbss.*) SORT(.gnu.linkonce.tb.*))
 *(SORT(.tcommon))

.preinit_array  0x000000000044e024        0x0
                0x000000000044e024                PROVIDE (__preinit_array_start, .)
 *(SORT(.preinit_array))
                0x000000000044e024                PROVIDE (__preinit_array_end, .)

.init_array     0x000000000044e024        0x0
                0x000000000044e024                PROVIDE (__init_array_start, .)
 *(SORT(.init_array.*))
 *(SORT(.init_array))
                0x000000000044e024                PROVIDE (__init_array_end, .)

.fini_array     0x000000000044e024        0x0
                0x000000000044e024                PROVIDE (__fini_array_start, .)
 *(SORT(.fini_array.*))
 *(SORT(.fini_array))
                0x000000000044e024                PROVIDE (__fini_array_end, .)

.ctors          0x000000000044e024        0x8
 *crtbegin.o(SORT(.ctors))
 .ctors         0x000000000044e024        0x4 /data/xiaoning/RealTek/HN120/toolchain/msdk-4.4.7-mips-EL-3.10-u0.9.33-m32t-140827/bin/../lib/gcc/mips-linux-uclibc/4.4.7/soft-float/el/crtbegin.o
 *crtbegin?.o(SORT(.ctors))
 *(SORT(EXCLUDE_FILE(*crtend?.o *crtend.o) .ctors))
 *(SORT(.ctors.*))
 *(SORT(.ctors))
 .ctors         0x000000000044e028        0x4 /data/xiaoning/RealTek/HN120/toolchain/msdk-4.4.7-mips-EL-3.10-u0.9.33-m32t-140827/bin/../lib/gcc/mips-linux-uclibc/4.4.7/soft-float/el/crtend.o

.dtors          0x000000000044e02c        0x8
 *crtbegin.o(SORT(.dtors))
 .dtors         0x000000000044e02c        0x4 /data/xiaoning/RealTek/HN120/toolchain/msdk-4.4.7-mips-EL-3.10-u0.9.33-m32t-140827/bin/../lib/gcc/mips-linux-uclibc/4.4.7/soft-float/el/crtbegin.o
 *crtbegin?.o(SORT(.dtors))
 *(SORT(EXCLUDE_FILE(*crtend?.o *crtend.o) .dtors))
 *(SORT(.dtors.*))
 *(SORT(.dtors))
 .dtors         0x000000000044e030        0x4 /data/xiaoning/RealTek/HN120/toolchain/msdk-4.4.7-mips-EL-3.10-u0.9.33-m32t-140827/bin/../lib/gcc/mips-linux-uclibc/4.4.7/soft-float/el/crtend.o
                0x000000000044e030                __DTOR_END__

.jcr            0x000000000044e034        0x4
 *(SORT(.jcr))
 .jcr           0x000000000044e034        0x0 /data/xiaoning/RealTek/HN120/toolchain/msdk-4.4.7-mips-EL-3.10-u0.9.33-m32t-140827/bin/../lib/gcc/mips-linux-uclibc/4.4.7/soft-float/el/crtbegin.o
 .jcr           0x000000000044e034        0x4 /data/xiaoning/RealTek/HN120/toolchain/msdk-4.4.7-mips-EL-3.10-u0.9.33-m32t-140827/bin/../lib/gcc/mips-linux-uclibc/4.4.7/soft-float/el/crtend.o

.data.rel.ro
 *(SORT(.data.rel.ro.local*) SORT(.gnu.linkonce.d.rel.ro.local.*))
 *(SORT(.data.rel.ro) SORT(.data.rel.ro.*) SORT(.gnu.linkonce.d.rel.ro.*))
                0x000000000044e038                . = DATA_SEGMENT_RELRO_END (., 0x0)

.data           0x000000000044e038       0x21
                0x000000000044e038                _fdata = .
 *(SORT(.data) SORT(.data.*) SORT(.gnu.linkonce.d.*))
 .data.xfunc_error_retval
                0x000000000044e038        0x4 libbb/lib.a(default_error_retval.o)
                0x000000000044e038                xfunc_error_retval
 .data.msg_eol  0x000000000044e03c        0x4 libbb/lib.a(verror_msg.o)
                0x000000000044e03c                msg_eol
 .data.issuefile
                0x000000000044e040        0x4 networking/lib.a(telnetd.o)
 .data.loginpath
                0x000000000044e044        0x4 networking/lib.a(telnetd.o)
 .data.ttyfd    0x000000000044e048        0x4 shell/lib.a(ash.o)
 .data.g_parsefile
                0x000000000044e04c        0x4 shell/lib.a(ash.o)
 .data.plinno   0x000000000044e050        0x4 shell/lib.a(ash.o)
 .data.builtinloc
                0x000000000044e054        0x4 shell/lib.a(ash.o)
 .data.logmode  0x000000000044e058        0x1 libbb/lib.a(verror_msg.o)
                0x000000000044e058                logmode

.rld_map        0x000000000044e05c        0x4
 .rld_map       0x000000000044e05c        0x4 /data/xiaoning/RealTek/HN120/toolchain/msdk-4.4.7-mips-EL-3.10-u0.9.33-m32t-140827/bin/../lib/gcc/mips-linux-uclibc/4.4.7/../../../../mips-linux-uclibc/lib/crt1.o
                0x000000000044e05c                __RLD_MAP

.data1
 *(SORT(.data1))

.got.plt        0x000000000044e060      0x3ec
 *(SORT(.got.plt))
 .got.plt       0x000000000044e060      0x3ec /data/xiaoning/RealTek/HN120/toolchain/msdk-4.4.7-mips-EL-3.10-u0.9.33-m32t-140827/bin/../lib/gcc/mips-linux-uclibc/4.4.7/../../../../mips-linux-uclibc/lib/crt1.o
                0x000000000044e44c                . = .
                0x000000000044e44c                . = .
                0x0000000000456440                _gp = (ALIGN (0x10) + 0x7ff0)

.got            0x000000000044e450       0x30
 *(SORT(.got))
 .got           0x000000000044e450       0x30 /data/xiaoning/RealTek/HN120/toolchain/msdk-4.4.7-mips-EL-3.10-u0.9.33-m32t-140827/bin/../lib/gcc/mips-linux-uclibc/4.4.7/../../../../mips-linux-uclibc/lib/crt1.o
                0x000000000044e450                _GLOBAL_OFFSET_TABLE_

.sdata
 *(SORT(.sdata) SORT(.sdata.*) SORT(.gnu.linkonce.s.*))

.lit8
 *(SORT(.lit8))

.lit4
 *(SORT(.lit4))
                0x000000000044e480                _edata = .
                0x000000000044e480                PROVIDE (edata, .)
                0x000000000044e480                . = .
                0x000000000044e480                __bss_start = .
                0x000000000044e480                _fbss = .

.sbss           0x000000000044e480       0x30
 *(SORT(.dynsbss))
 *(SORT(.sbss) SORT(.sbss.*) SORT(.gnu.linkonce.sb.*))
 *(SORT(.scommon))
 .scommon       0x000000000044e480        0x4 libbb/lib.a(appletlib.o)
                0x000000000044e480                applet_name
 .scommon       0x000000000044e484        0x8 libbb/lib.a(ptr_to_globals.o)
                0x000000000044e484                bb_errno
                0x000000000044e488                ptr_to_globals
 .scommon       0x000000000044e48c        0x4 libbb/lib.a(xfunc_die.o)
                0x000000000044e48c                die_sleep
 .scommon       0x000000000044e490        0xc shell/lib.a(ash_ptr_hack.o)
                0x000000000044e490                ash_ptr_to_globals_memstack
                0x000000000044e494                ash_ptr_to_globals_misc
                0x000000000044e498                ash_ptr_to_globals_var
 .scommon       0x000000000044e49c        0x4 coreutils/lib.a(test_ptr_hack.o)
                0x000000000044e49c                test_ptr_to_statics
 .scommon       0x000000000044e4a0        0x8 libbb/lib.a(getopt32.o)
                0x000000000044e4a0                opt_complementary
                0x000000000044e4a4                option_mask32
 .scommon       0x000000000044e4a8        0x4 libbb/lib.a(lineedit_ptr_hack.o)
                0x000000000044e4a8                lineedit_ptr_to_statics
 .scommon       0x000000000044e4ac        0x1 networking/lib.a(interface.o)
                0x000000000044e4ac                interface_opt_a
 .scommon       0x000000000044e4ad        0x2 networking/libiproute/lib.a(ip_parse_common_args.o)
                0x000000000044e4ad                _SL_
                0x000000000044e4ae                oneline
 .scommon       0x000000000044e4af        0x1 libbb/lib.a(signals.o)
                0x000000000044e4af                bb_got_signal

.bss            0x000000000044e4b0     0x1268
 *(SORT(.dynbss))
 .dynbss        0x000000000044e4b0       0x38 /data/xiaoning/RealTek/HN120/toolchain/msdk-4.4.7-mips-EL-3.10-u0.9.33-m32t-140827/bin/../lib/gcc/mips-linux-uclibc/4.4.7/../../../../mips-linux-uclibc/lib/crt1.o
                0x000000000044e4b0                stdout
                0x000000000044e4b4                optarg
                0x000000000044e4b8                __ctype_toupper
                0x000000000044e4bc                __environ
                0x000000000044e4bc                environ
                0x000000000044e4c0                optind
                0x000000000044e4c4                __stdin
                0x000000000044e4d0                stdin
                0x000000000044e4d8                stderr
                0x000000000044e4e0                __stdout
                0x000000000044e4e4                __ctype_tolower
 *(SORT(.bss) SORT(.bss.*) SORT(.gnu.linkonce.b.*))
 *fill*         0x000000000044e4e8        0x8 
 .bss           0x000000000044e4f0       0x20 /data/xiaoning/RealTek/HN120/toolchain/msdk-4.4.7-mips-EL-3.10-u0.9.33-m32t-140827/bin/../lib/gcc/mips-linux-uclibc/4.4.7/soft-float/el/crtbegin.o
 .bss.ruid      0x000000000044e510        0x4 libbb/lib.a(appletlib.o)
 .bss.short_tty
                0x000000000044e514        0x4 loginutils/lib.a(login.o)
 .bss.loaded    0x000000000044e518        0x4 modutils/lib.a(modprobe.o)
 .bss.buff.6492
                0x000000000044e51c        0x4 networking/lib.a(interface.o)
 .bss.buff.6451
                0x000000000044e520        0x4 networking/lib.a(interface.o)
 .bss.buff.6472
                0x000000000044e524        0x4 networking/lib.a(interface.o)
 .bss.buff.6906
                0x000000000044e528        0x4 networking/lib.a(interface.o)
 .bss.int_list  0x000000000044e52c        0x4 networking/lib.a(interface.o)
 .bss.int_last  0x000000000044e530        0x4 networking/lib.a(interface.o)
 .bss.maxfd     0x000000000044e534        0x4 networking/lib.a(telnetd.o)
 .bss.sessions  0x000000000044e538        0x4 networking/lib.a(telnetd.o)
 .bss.res.6613  0x000000000044e53c        0x4 networking/libiproute/lib.a(rt_names.o)
 .bss.cache.6612
                0x000000000044e540        0x4 networking/libiproute/lib.a(rt_names.o)
 .bss.rtnl_rtdsfield_tab
                0x000000000044e544        0x4 networking/libiproute/lib.a(rt_names.o)
 .bss.buf.11178
                0x000000000044e548       0x10 shell/lib.a(ash.o)
 .bss.basepf    0x000000000044e558       0x34 shell/lib.a(ash.o)
 .bss.startlinno
                0x000000000044e58c        0x4 shell/lib.a(ash.o)
 .bss.commandname
                0x000000000044e590        0x4 shell/lib.a(ash.o)
 .bss.cmdenviron
                0x000000000044e594        0x4 shell/lib.a(ash.o)
 .bss.argptr    0x000000000044e598        0x4 shell/lib.a(ash.o)
 .bss.optionarg
                0x000000000044e59c        0x4 shell/lib.a(ash.o)
 .bss.optptr    0x000000000044e5a0        0x4 shell/lib.a(ash.o)
 .bss.pathopt   0x000000000044e5a4        0x4 shell/lib.a(ash.o)
 .bss.line_input_state
                0x000000000044e5a8        0x4 shell/lib.a(ash.o)
 .bss.cmdedit_prompt
                0x000000000044e5ac        0x4 shell/lib.a(ash.o)
 .bss.atab      0x000000000044e5b0        0x4 shell/lib.a(ash.o)
 .bss.initialpgrp
                0x000000000044e5b4        0x4 shell/lib.a(ash.o)
 .bss.jobtab    0x000000000044e5b8        0x4 shell/lib.a(ash.o)
 .bss.njobs     0x000000000044e5bc        0x4 shell/lib.a(ash.o)
 .bss.curjob    0x000000000044e5c0        0x4 shell/lib.a(ash.o)
 .bss.jobless   0x000000000044e5c4        0x4 shell/lib.a(ash.o)
 .bss.cmdnextc  0x000000000044e5c8        0x4 shell/lib.a(ash.o)
 .bss.expdest   0x000000000044e5cc        0x4 shell/lib.a(ash.o)
 .bss.argbackq  0x000000000044e5d0        0x4 shell/lib.a(ash.o)
 .bss.ifsfirst  0x000000000044e5d4       0x10 shell/lib.a(ash.o)
 .bss.ifslastp  0x000000000044e5e4        0x4 shell/lib.a(ash.o)
 .bss.exparg    0x000000000044e5e8        0x8 shell/lib.a(ash.o)
 .bss.expdir    0x000000000044e5f0        0x4 shell/lib.a(ash.o)
 .bss.cmdtable  0x000000000044e5f4        0x4 shell/lib.a(ash.o)
 .bss.lastcmdentry
                0x000000000044e5f8        0x4 shell/lib.a(ash.o)
 .bss.funcblocksize
                0x000000000044e5fc        0x4 shell/lib.a(ash.o)
 .bss.funcstringsize
                0x000000000044e600        0x4 shell/lib.a(ash.o)
 .bss.funcblock
                0x000000000044e604        0x4 shell/lib.a(ash.o)
 .bss.funcstring
                0x000000000044e608        0x4 shell/lib.a(ash.o)
 .bss.evalskip  0x000000000044e60c        0x4 shell/lib.a(ash.o)
 .bss.skipcount
                0x000000000044e610        0x4 shell/lib.a(ash.o)
 .bss.funcnest  0x000000000044e614        0x4 shell/lib.a(ash.o)
 .bss.loopnest  0x000000000044e618        0x4 shell/lib.a(ash.o)
 .bss.localvars
                0x000000000044e61c        0x4 shell/lib.a(ash.o)
 .bss.parsenleft
                0x000000000044e620        0x4 shell/lib.a(ash.o)
 .bss.parselleft
                0x000000000044e624        0x4 shell/lib.a(ash.o)
 .bss.parsenextc
                0x000000000044e628        0x4 shell/lib.a(ash.o)
 .bss.heredoclist
                0x000000000044e62c        0x4 shell/lib.a(ash.o)
 .bss.wordtext  0x000000000044e630        0x4 shell/lib.a(ash.o)
 .bss.backquotelist
                0x000000000044e634        0x4 shell/lib.a(ash.o)
 .bss.redirnode
                0x000000000044e638        0x4 shell/lib.a(ash.o)
 .bss.heredoc   0x000000000044e63c        0x4 shell/lib.a(ash.o)
 .bss.prev_chk_var_recursive
                0x000000000044e640        0x4 shell/lib.a(ash.o)
 .bss.init_action_list
                0x000000000044e644        0x4 init/lib.a(init.o)
 .bss.cache.6386
                0x000000000044e648        0x4 libbb/lib.a(inet_common.o)
 .bss.ino_dev_hashtable
                0x000000000044e64c        0x4 libbb/lib.a(inode_hash.o)
 .bss.buf.6341  0x000000000044e650        0xc libbb/lib.a(mode_string.o)
 .bss.username  0x000000000044e65c        0x8 libbb/lib.a(procps.o)
 .bss.groupname
                0x000000000044e664        0x8 libbb/lib.a(procps.o)
 .bss.local_buf
                0x000000000044e66c        0xc libbb/lib.a(xfuncs.o)
 .bss.passwd.6345
                0x000000000044e678        0x4 libbb/lib.a(bb_askpass.o)
 .bss.proc_read.6732
                0x000000000044e67c        0x1 networking/lib.a(interface.o)
 .bss.preferred_family
                0x000000000044e67d        0x1 networking/libiproute/lib.a(ip_parse_common_args.o)
                0x000000000044e67d                preferred_family
 .bss.is_interactive.11953
                0x000000000044e67e        0x1 shell/lib.a(ash.o)
 .bss.exitstatus
                0x000000000044e67f        0x1 shell/lib.a(ash.o)
 .bss.doprompt  0x000000000044e680        0x1 shell/lib.a(ash.o)
 .bss.needprompt
                0x000000000044e681        0x1 shell/lib.a(ash.o)
 .bss.doing_jobctl
                0x000000000044e682        0x1 shell/lib.a(ash.o)
 .bss.back_exitstatus
                0x000000000044e683        0x1 shell/lib.a(ash.o)
 .bss.checkkwd  0x000000000044e684        0x1 shell/lib.a(ash.o)
 .bss.tokpushback
                0x000000000044e685        0x1 shell/lib.a(ash.o)
 .bss.parsebackquote
                0x000000000044e686        0x1 shell/lib.a(ash.o)
 .bss.quoteflag
                0x000000000044e687        0x1 shell/lib.a(ash.o)
 .bss.lasttoken
                0x000000000044e688        0x1 shell/lib.a(ash.o)
 *(SORT(COMMON))
 *fill*         0x000000000044e689        0x7 
 COMMON         0x000000000044e690     0x1001 libbb/lib.a(messages.o)
                0x000000000044e690                bb_common_bufsiz1
 *fill*         0x000000000044f691        0x7 
 COMMON         0x000000000044f698       0x80 libbb/lib.a(xfunc_die.o)
                0x000000000044f698                die_jmp
                0x000000000044f718                . = ALIGN ((. != 0x0)?0x4:0x1)
                0x000000000044f718                . = ALIGN (0x4)
                0x000000000044f718                . = ALIGN (0x4)
                0x000000000044f718                _end = .
                0x000000000044f718                PROVIDE (end, .)
                0x000000000044f718                . = DATA_SEGMENT_END (.)

.stab
 *(SORT(.stab))

.stabstr
 *(SORT(.stabstr))

.stab.excl
 *(SORT(.stab.excl))

.stab.exclstr
 *(SORT(.stab.exclstr))

.stab.index
 *(SORT(.stab.index))

.stab.indexstr
 *(SORT(.stab.indexstr))

.comment        0x0000000000000000       0x3c
 *(SORT(.comment))
 .comment       0x0000000000000000       0x11 /data/xiaoning/RealTek/HN120/toolchain/msdk-4.4.7-mips-EL-3.10-u0.9.33-m32t-140827/bin/../lib/gcc/mips-linux-uclibc/4.4.7/../../../../mips-linux-uclibc/lib/crti.o
                                         0x12 (size before relaxing)
 .comment       0x0000000000000011       0x2b /data/xiaoning/RealTek/HN120/toolchain/msdk-4.4.7-mips-EL-3.10-u0.9.33-m32t-140827/bin/../lib/gcc/mips-linux-uclibc/4.4.7/soft-float/el/crtbegin.o
                                         0x2c (size before relaxing)
 .comment       0x0000000000000000       0x2c applets/built-in.o
 .comment       0x0000000000000000       0x2c libbb/lib.a(appletlib.o)
 .comment       0x0000000000000000       0x2c libbb/lib.a(bb_basename.o)
 .comment       0x0000000000000000       0x2c libbb/lib.a(default_error_retval.o)
 .comment       0x0000000000000000       0x2c libbb/lib.a(error_msg_and_die.o)
 .comment       0x0000000000000000       0x2c libbb/lib.a(full_write.o)
 .comment       0x0000000000000000       0x2c libbb/lib.a(get_last_path_component.o)
 .comment       0x0000000000000000       0x2c libbb/lib.a(last_char_is.o)
 .comment       0x0000000000000000       0x2c libbb/lib.a(messages.o)
 .comment       0x0000000000000000       0x2c libbb/lib.a(ptr_to_globals.o)
 .comment       0x0000000000000000       0x2c libbb/lib.a(safe_write.o)
 .comment       0x0000000000000000       0x2c libbb/lib.a(verror_msg.o)
 .comment       0x0000000000000000       0x2c libbb/lib.a(xfunc_die.o)
 .comment       0x0000000000000000       0x2c libbb/lib.a(xfuncs_printf.o)
 .comment       0x0000000000000000       0x2c libbb/lib.a(copyfd.o)
 .comment       0x0000000000000000       0x2c libbb/lib.a(error_msg.o)
 .comment       0x0000000000000000       0x2c libbb/lib.a(perror_msg.o)
 .comment       0x0000000000000000       0x2c libbb/lib.a(perror_msg_and_die.o)
 .comment       0x0000000000000000       0x2c libbb/lib.a(read.o)
 .comment       0x0000000000000000       0x2c libbb/lib.a(safe_poll.o)
 .comment       0x0000000000000000       0x2c loginutils/lib.a(login.o)
 .comment       0x0000000000000000       0x2c modutils/lib.a(depmod.o)
 .comment       0x0000000000000000       0x2c modutils/lib.a(insmod.o)
 .comment       0x0000000000000000       0x2c modutils/lib.a(lsmod.o)
 .comment       0x0000000000000000       0x2c modutils/lib.a(modprobe.o)
 .comment       0x0000000000000000       0x2c modutils/lib.a(modutils.o)
 .comment       0x0000000000000000       0x2c modutils/lib.a(rmmod.o)
 .comment       0x0000000000000000       0x2c networking/lib.a(hostname.o)
 .comment       0x0000000000000000       0x2c networking/lib.a(ifconfig.o)
 .comment       0x0000000000000000       0x2c networking/lib.a(interface.o)
 .comment       0x0000000000000000       0x2c networking/lib.a(ip.o)
 .comment       0x0000000000000000       0x2c networking/lib.a(ping.o)
 .comment       0x0000000000000000       0x2c networking/lib.a(route.o)
 .comment       0x0000000000000000       0x2c networking/lib.a(telnetd.o)
 .comment       0x0000000000000000       0x2c networking/lib.a(tftp.o)
 .comment       0x0000000000000000       0x2c networking/lib.a(traceroute.o)
 .comment       0x0000000000000000       0x2c networking/lib.a(vconfig.o)
 .comment       0x0000000000000000       0x2c networking/libiproute/lib.a(ip_parse_common_args.o)
 .comment       0x0000000000000000       0x2c networking/libiproute/lib.a(iptunnel.o)
 .comment       0x0000000000000000       0x2c networking/libiproute/lib.a(rt_names.o)
 .comment       0x0000000000000000       0x2c networking/libiproute/lib.a(utils.o)
 .comment       0x0000000000000000       0x2c procps/lib.a(free.o)
 .comment       0x0000000000000000       0x2c procps/lib.a(kill.o)
 .comment       0x0000000000000000       0x2c procps/lib.a(ps.o)
 .comment       0x0000000000000000       0x2c procps/lib.a(renice.o)
 .comment       0x0000000000000000       0x2c procps/lib.a(top.o)
 .comment       0x0000000000000000       0x2c procps/lib.a(uptime.o)
 .comment       0x0000000000000000       0x2c shell/lib.a(ash.o)
 .comment       0x0000000000000000       0x2c shell/lib.a(ash_ptr_hack.o)
 .comment       0x0000000000000000       0x2c sysklogd/lib.a(klogd.o)
 .comment       0x0000000000000000       0x2c sysklogd/lib.a(syslogd_and_logger.o)
 .comment       0x0000000000000000       0x2c util-linux/lib.a(mount.o)
 .comment       0x0000000000000000       0x2c util-linux/lib.a(umount.o)
 .comment       0x0000000000000000       0x2c archival/lib.a(bbunzip.o)
 .comment       0x0000000000000000       0x2c archival/libunarchive/lib.a(decompress_bunzip2.o)
 .comment       0x0000000000000000       0x2c coreutils/lib.a(cat.o)
 .comment       0x0000000000000000       0x2c coreutils/lib.a(chmod.o)
 .comment       0x0000000000000000       0x2c coreutils/lib.a(cp.o)
 .comment       0x0000000000000000       0x2c coreutils/lib.a(cut.o)
 .comment       0x0000000000000000       0x2c coreutils/lib.a(date.o)
 .comment       0x0000000000000000       0x2c coreutils/lib.a(echo.o)
 .comment       0x0000000000000000       0x2c coreutils/lib.a(expr.o)
 .comment       0x0000000000000000       0x2c coreutils/lib.a(false.o)
 .comment       0x0000000000000000       0x2c coreutils/lib.a(head.o)
 .comment       0x0000000000000000       0x2c coreutils/lib.a(ln.o)
 .comment       0x0000000000000000       0x2c coreutils/lib.a(ls.o)
 .comment       0x0000000000000000       0x2c coreutils/lib.a(mkdir.o)
 .comment       0x0000000000000000       0x2c coreutils/lib.a(printf.o)
 .comment       0x0000000000000000       0x2c coreutils/lib.a(rm.o)
 .comment       0x0000000000000000       0x2c coreutils/lib.a(sleep.o)
 .comment       0x0000000000000000       0x2c coreutils/lib.a(tail.o)
 .comment       0x0000000000000000       0x2c coreutils/lib.a(test.o)
 .comment       0x0000000000000000       0x2c coreutils/lib.a(test_ptr_hack.o)
 .comment       0x0000000000000000       0x2c coreutils/lib.a(true.o)
 .comment       0x0000000000000000       0x2c coreutils/lib.a(wc.o)
 .comment       0x0000000000000000       0x2c coreutils/libcoreutils/lib.a(cp_mv_stat.o)
 .comment       0x0000000000000000       0x2c editors/lib.a(awk.o)
 .comment       0x0000000000000000       0x2c findutils/lib.a(grep.o)
 .comment       0x0000000000000000       0x2c init/lib.a(halt.o)
 .comment       0x0000000000000000       0x2c init/lib.a(init.o)
 .comment       0x0000000000000000       0x2c libbb/lib.a(bb_do_delay.o)
 .comment       0x0000000000000000       0x2c libbb/lib.a(bb_strtonum.o)
 .comment       0x0000000000000000       0x2c libbb/lib.a(change_identity.o)
 .comment       0x0000000000000000       0x2c libbb/lib.a(compare_string_array.o)
 .comment       0x0000000000000000       0x2c libbb/lib.a(concat_path_file.o)
 .comment       0x0000000000000000       0x2c libbb/lib.a(copy_file.o)
 .comment       0x0000000000000000       0x2c libbb/lib.a(correct_password.o)
 .comment       0x0000000000000000       0x2c libbb/lib.a(crc32.o)
 .comment       0x0000000000000000       0x2c libbb/lib.a(create_icmp6_socket.o)
 .comment       0x0000000000000000       0x2c libbb/lib.a(create_icmp_socket.o)
 .comment       0x0000000000000000       0x2c libbb/lib.a(device_open.o)
 .comment       0x0000000000000000       0x2c libbb/lib.a(execable.o)
 .comment       0x0000000000000000       0x2c libbb/lib.a(fclose_nonstdin.o)
 .comment       0x0000000000000000       0x2c libbb/lib.a(fflush_stdout_and_exit.o)
 .comment       0x0000000000000000       0x2c libbb/lib.a(find_pid_by_name.o)
 .comment       0x0000000000000000       0x2c libbb/lib.a(get_line_from_file.o)
 .comment       0x0000000000000000       0x2c libbb/lib.a(getopt32.o)
 .comment       0x0000000000000000       0x2c libbb/lib.a(getpty.o)
 .comment       0x0000000000000000       0x2c libbb/lib.a(inet_common.o)
 .comment       0x0000000000000000       0x2c libbb/lib.a(info_msg.o)
 .comment       0x0000000000000000       0x2c libbb/lib.a(inode_hash.o)
 .comment       0x0000000000000000       0x2c libbb/lib.a(isdirectory.o)
 .comment       0x0000000000000000       0x2c libbb/lib.a(lineedit.o)
 .comment       0x0000000000000000       0x2c libbb/lib.a(lineedit_ptr_hack.o)
 .comment       0x0000000000000000       0x2c libbb/lib.a(llist.o)
 .comment       0x0000000000000000       0x2c libbb/lib.a(login.o)
 .comment       0x0000000000000000       0x2c libbb/lib.a(make_directory.o)
 .comment       0x0000000000000000       0x2c libbb/lib.a(match_fstype.o)
 .comment       0x0000000000000000       0x2c libbb/lib.a(mode_string.o)
 .comment       0x0000000000000000       0x2c libbb/lib.a(mtab_file.o)
 .comment       0x0000000000000000       0x2c libbb/lib.a(parse_config.o)
 .comment       0x0000000000000000       0x2c libbb/lib.a(parse_mode.o)
 .comment       0x0000000000000000       0x2c libbb/lib.a(perror_nomsg_and_die.o)
 .comment       0x0000000000000000       0x2c libbb/lib.a(process_escape_sequence.o)
 .comment       0x0000000000000000       0x2c libbb/lib.a(procps.o)
 .comment       0x0000000000000000       0x2c libbb/lib.a(pw_encrypt.o)
 .comment       0x0000000000000000       0x2c libbb/lib.a(recursive_action.o)
 .comment       0x0000000000000000       0x2c libbb/lib.a(remove_file.o)
 .comment       0x0000000000000000       0x2c libbb/lib.a(run_shell.o)
 .comment       0x0000000000000000       0x2c libbb/lib.a(safe_gethostname.o)
 .comment       0x0000000000000000       0x2c libbb/lib.a(safe_strncpy.o)
 .comment       0x0000000000000000       0x2c libbb/lib.a(setup_environment.o)
 .comment       0x0000000000000000       0x2c libbb/lib.a(signals.o)
 .comment       0x0000000000000000       0x2c libbb/lib.a(simplify_path.o)
 .comment       0x0000000000000000       0x2c libbb/lib.a(skip_whitespace.o)
 .comment       0x0000000000000000       0x2c libbb/lib.a(strrstr.o)
 .comment       0x0000000000000000       0x2c libbb/lib.a(time.o)
 .comment       0x0000000000000000       0x2c libbb/lib.a(u_signal_names.o)
 .comment       0x0000000000000000       0x2c libbb/lib.a(vfork_daemon_rexec.o)
 .comment       0x0000000000000000       0x2c libbb/lib.a(wfopen.o)
 .comment       0x0000000000000000       0x2c libbb/lib.a(wfopen_input.o)
 .comment       0x0000000000000000       0x2c libbb/lib.a(xatonum.o)
 .comment       0x0000000000000000       0x2c libbb/lib.a(xconnect.o)
 .comment       0x0000000000000000       0x2c libbb/lib.a(xfuncs.o)
 .comment       0x0000000000000000       0x2c libbb/lib.a(xgetcwd.o)
 .comment       0x0000000000000000       0x2c libbb/lib.a(xgethostbyname.o)
 .comment       0x0000000000000000       0x2c libbb/lib.a(xreadlink.o)
 .comment       0x0000000000000000       0x2c libbb/lib.a(xrealloc_vector.o)
 .comment       0x0000000000000000       0x2c libbb/lib.a(xregcomp.o)
 .comment       0x0000000000000000       0x2c libbb/lib.a(ask_confirmation.o)
 .comment       0x0000000000000000       0x2c libbb/lib.a(bb_askpass.o)
 .comment       0x0000000000000000       0x2c libbb/lib.a(bb_pwd.o)
 .comment       0x0000000000000000       0x2c libbb/lib.a(bb_qsort.o)
 .comment       0x0000000000000000       0x2c libbb/lib.a(concat_subpath_file.o)
 .comment       0x0000000000000000       0x2c libbb/lib.a(herror_msg_and_die.o)
 .comment       0x0000000000000000       0x2c /data/xiaoning/RealTek/HN120/toolchain/msdk-4.4.7-mips-EL-3.10-u0.9.33-m32t-140827/bin/../lib/gcc/mips-linux-uclibc/4.4.7/soft-float/el/libgcc.a(_bswapsi2.o)
 .comment       0x0000000000000000       0x2c /data/xiaoning/RealTek/HN120/toolchain/msdk-4.4.7-mips-EL-3.10-u0.9.33-m32t-140827/bin/../lib/gcc/mips-linux-uclibc/4.4.7/soft-float/el/libgcc.a(_fixunsdfsi.o)
 .comment       0x0000000000000000       0x2c /data/xiaoning/RealTek/HN120/toolchain/msdk-4.4.7-mips-EL-3.10-u0.9.33-m32t-140827/bin/../lib/gcc/mips-linux-uclibc/4.4.7/soft-float/el/libgcc.a(_udivdi3.o)
 .comment       0x0000000000000000       0x2c /data/xiaoning/RealTek/HN120/toolchain/msdk-4.4.7-mips-EL-3.10-u0.9.33-m32t-140827/bin/../lib/gcc/mips-linux-uclibc/4.4.7/soft-float/el/libgcc.a(adddf3.o)
 .comment       0x0000000000000000       0x2c /data/xiaoning/RealTek/HN120/toolchain/msdk-4.4.7-mips-EL-3.10-u0.9.33-m32t-140827/bin/../lib/gcc/mips-linux-uclibc/4.4.7/soft-float/el/libgcc.a(divdf3.o)
 .comment       0x0000000000000000       0x2c /data/xiaoning/RealTek/HN120/toolchain/msdk-4.4.7-mips-EL-3.10-u0.9.33-m32t-140827/bin/../lib/gcc/mips-linux-uclibc/4.4.7/soft-float/el/libgcc.a(eqdf2.o)
 .comment       0x0000000000000000       0x2c /data/xiaoning/RealTek/HN120/toolchain/msdk-4.4.7-mips-EL-3.10-u0.9.33-m32t-140827/bin/../lib/gcc/mips-linux-uclibc/4.4.7/soft-float/el/libgcc.a(gedf2.o)
 .comment       0x0000000000000000       0x2c /data/xiaoning/RealTek/HN120/toolchain/msdk-4.4.7-mips-EL-3.10-u0.9.33-m32t-140827/bin/../lib/gcc/mips-linux-uclibc/4.4.7/soft-float/el/libgcc.a(ledf2.o)
 .comment       0x0000000000000000       0x2c /data/xiaoning/RealTek/HN120/toolchain/msdk-4.4.7-mips-EL-3.10-u0.9.33-m32t-140827/bin/../lib/gcc/mips-linux-uclibc/4.4.7/soft-float/el/libgcc.a(muldf3.o)
 .comment       0x0000000000000000       0x2c /data/xiaoning/RealTek/HN120/toolchain/msdk-4.4.7-mips-EL-3.10-u0.9.33-m32t-140827/bin/../lib/gcc/mips-linux-uclibc/4.4.7/soft-float/el/libgcc.a(subdf3.o)
 .comment       0x0000000000000000       0x2c /data/xiaoning/RealTek/HN120/toolchain/msdk-4.4.7-mips-EL-3.10-u0.9.33-m32t-140827/bin/../lib/gcc/mips-linux-uclibc/4.4.7/soft-float/el/libgcc.a(fixdfsi.o)
 .comment       0x0000000000000000       0x2c /data/xiaoning/RealTek/HN120/toolchain/msdk-4.4.7-mips-EL-3.10-u0.9.33-m32t-140827/bin/../lib/gcc/mips-linux-uclibc/4.4.7/soft-float/el/libgcc.a(floatsidf.o)
 .comment       0x0000000000000000       0x2c /data/xiaoning/RealTek/HN120/toolchain/msdk-4.4.7-mips-EL-3.10-u0.9.33-m32t-140827/bin/../lib/gcc/mips-linux-uclibc/4.4.7/soft-float/el/libgcc.a(floatunsidf.o)
 .comment       0x0000000000000000       0x2c /data/xiaoning/RealTek/HN120/toolchain/msdk-4.4.7-mips-EL-3.10-u0.9.33-m32t-140827/bin/../lib/gcc/mips-linux-uclibc/4.4.7/soft-float/el/crtend.o
 .comment       0x0000000000000000       0x12 /data/xiaoning/RealTek/HN120/toolchain/msdk-4.4.7-mips-EL-3.10-u0.9.33-m32t-140827/bin/../lib/gcc/mips-linux-uclibc/4.4.7/../../../../mips-linux-uclibc/lib/crtn.o

.pdr            0x0000000000000000        0x0
 .pdr           0x0000000000000000        0x0 /data/xiaoning/RealTek/HN120/toolchain/msdk-4.4.7-mips-EL-3.10-u0.9.33-m32t-140827/bin/../lib/gcc/mips-linux-uclibc/4.4.7/soft-float/el/crtbegin.o
 .pdr           0x0000000000000000        0x0 applets/built-in.o
 .pdr           0x0000000000000000        0x0 libbb/lib.a(default_error_retval.o)
 .pdr           0x0000000000000000        0x0 libbb/lib.a(messages.o)
 .pdr           0x0000000000000000        0x0 libbb/lib.a(ptr_to_globals.o)
 .pdr           0x0000000000000000        0x0 shell/lib.a(ash_ptr_hack.o)
 .pdr           0x0000000000000000        0x0 coreutils/lib.a(test_ptr_hack.o)
 .pdr           0x0000000000000000        0x0 libbb/lib.a(lineedit_ptr_hack.o)
 .pdr           0x0000000000000000        0x0 libbb/lib.a(mtab_file.o)
 .pdr           0x0000000000000000        0x0 /data/xiaoning/RealTek/HN120/toolchain/msdk-4.4.7-mips-EL-3.10-u0.9.33-m32t-140827/bin/../lib/gcc/mips-linux-uclibc/4.4.7/soft-float/el/crtend.o
 .pdr           0x0000000000000000        0x0 /data/xiaoning/RealTek/HN120/toolchain/msdk-4.4.7-mips-EL-3.10-u0.9.33-m32t-140827/bin/../lib/gcc/mips-linux-uclibc/4.4.7/../../../../mips-linux-uclibc/lib/crtn.o

.debug
 *(SORT(.debug))

.line
 *(SORT(.line))

.debug_srcinfo
 *(SORT(.debug_srcinfo))

.debug_sfnames
 *(SORT(.debug_sfnames))

.debug_aranges
 *(SORT(.debug_aranges))

.debug_pubnames
 *(SORT(.debug_pubnames))

.debug_info
 *(SORT(.debug_info) SORT(.gnu.linkonce.wi.*))

.debug_abbrev
 *(SORT(.debug_abbrev))

.debug_line
 *(SORT(.debug_line))

.debug_frame
 *(SORT(.debug_frame))

.debug_str
 *(SORT(.debug_str))

.debug_loc
 *(SORT(.debug_loc))

.debug_macinfo
 *(SORT(.debug_macinfo))

.debug_weaknames
 *(SORT(.debug_weaknames))

.debug_funcnames
 *(SORT(.debug_funcnames))

.debug_typenames
 *(SORT(.debug_typenames))

.debug_varnames
 *(SORT(.debug_varnames))

.debug_pubtypes
 *(SORT(.debug_pubtypes))

.debug_ranges
 *(SORT(.debug_ranges))

.debug_macro
 *(SORT(.debug_macro))

.gnu.attributes
                0x0000000000000000       0x10
 *(SORT(.gnu.attributes))
 .gnu.attributes
                0x0000000000000000       0x10 /data/xiaoning/RealTek/HN120/toolchain/msdk-4.4.7-mips-EL-3.10-u0.9.33-m32t-140827/bin/../lib/gcc/mips-linux-uclibc/4.4.7/soft-float/el/crtbegin.o
 .gnu.attributes
                0x0000000000000010       0x10 applets/built-in.o
 .gnu.attributes
                0x0000000000000020       0x10 libbb/lib.a(appletlib.o)
 .gnu.attributes
                0x0000000000000030       0x10 libbb/lib.a(bb_basename.o)
 .gnu.attributes
                0x0000000000000040       0x10 libbb/lib.a(default_error_retval.o)
 .gnu.attributes
                0x0000000000000050       0x10 libbb/lib.a(error_msg_and_die.o)
 .gnu.attributes
                0x0000000000000060       0x10 libbb/lib.a(full_write.o)
 .gnu.attributes
                0x0000000000000070       0x10 libbb/lib.a(get_last_path_component.o)
 .gnu.attributes
                0x0000000000000080       0x10 libbb/lib.a(last_char_is.o)
 .gnu.attributes
                0x0000000000000090       0x10 libbb/lib.a(messages.o)
 .gnu.attributes
                0x00000000000000a0       0x10 libbb/lib.a(ptr_to_globals.o)
 .gnu.attributes
                0x00000000000000b0       0x10 libbb/lib.a(safe_write.o)
 .gnu.attributes
                0x00000000000000c0       0x10 libbb/lib.a(verror_msg.o)
 .gnu.attributes
                0x00000000000000d0       0x10 libbb/lib.a(xfunc_die.o)
 .gnu.attributes
                0x00000000000000e0       0x10 libbb/lib.a(xfuncs_printf.o)
 .gnu.attributes
                0x00000000000000f0       0x10 libbb/lib.a(copyfd.o)
 .gnu.attributes
                0x0000000000000100       0x10 libbb/lib.a(error_msg.o)
 .gnu.attributes
                0x0000000000000110       0x10 libbb/lib.a(perror_msg.o)
 .gnu.attributes
                0x0000000000000120       0x10 libbb/lib.a(perror_msg_and_die.o)
 .gnu.attributes
                0x0000000000000130       0x10 libbb/lib.a(read.o)
 .gnu.attributes
                0x0000000000000140       0x10 libbb/lib.a(safe_poll.o)
 .gnu.attributes
                0x0000000000000150       0x10 loginutils/lib.a(login.o)
 .gnu.attributes
                0x0000000000000160       0x10 modutils/lib.a(depmod.o)
 .gnu.attributes
                0x0000000000000170       0x10 modutils/lib.a(insmod.o)
 .gnu.attributes
                0x0000000000000180       0x10 modutils/lib.a(lsmod.o)
 .gnu.attributes
                0x0000000000000190       0x10 modutils/lib.a(modprobe.o)
 .gnu.attributes
                0x00000000000001a0       0x10 modutils/lib.a(modutils.o)
 .gnu.attributes
                0x00000000000001b0       0x10 modutils/lib.a(rmmod.o)
 .gnu.attributes
                0x00000000000001c0       0x10 networking/lib.a(hostname.o)
 .gnu.attributes
                0x00000000000001d0       0x10 networking/lib.a(ifconfig.o)
 .gnu.attributes
                0x00000000000001e0       0x10 networking/lib.a(interface.o)
 .gnu.attributes
                0x00000000000001f0       0x10 networking/lib.a(ip.o)
 .gnu.attributes
                0x0000000000000200       0x10 networking/lib.a(ping.o)
 .gnu.attributes
                0x0000000000000210       0x10 networking/lib.a(route.o)
 .gnu.attributes
                0x0000000000000220       0x10 networking/lib.a(telnetd.o)
 .gnu.attributes
                0x0000000000000230       0x10 networking/lib.a(tftp.o)
 .gnu.attributes
                0x0000000000000240       0x10 networking/lib.a(traceroute.o)
 .gnu.attributes
                0x0000000000000250       0x10 networking/lib.a(vconfig.o)
 .gnu.attributes
                0x0000000000000260       0x10 networking/libiproute/lib.a(ip_parse_common_args.o)
 .gnu.attributes
                0x0000000000000270       0x10 networking/libiproute/lib.a(iptunnel.o)
 .gnu.attributes
                0x0000000000000280       0x10 networking/libiproute/lib.a(rt_names.o)
 .gnu.attributes
                0x0000000000000290       0x10 networking/libiproute/lib.a(utils.o)
 .gnu.attributes
                0x00000000000002a0       0x10 procps/lib.a(free.o)
 .gnu.attributes
                0x00000000000002b0       0x10 procps/lib.a(kill.o)
 .gnu.attributes
                0x00000000000002c0       0x10 procps/lib.a(ps.o)
 .gnu.attributes
                0x00000000000002d0       0x10 procps/lib.a(renice.o)
 .gnu.attributes
                0x00000000000002e0       0x10 procps/lib.a(top.o)
 .gnu.attributes
                0x00000000000002f0       0x10 procps/lib.a(uptime.o)
 .gnu.attributes
                0x0000000000000300       0x10 shell/lib.a(ash.o)
 .gnu.attributes
                0x0000000000000310       0x10 shell/lib.a(ash_ptr_hack.o)
 .gnu.attributes
                0x0000000000000320       0x10 sysklogd/lib.a(klogd.o)
 .gnu.attributes
                0x0000000000000330       0x10 sysklogd/lib.a(syslogd_and_logger.o)
 .gnu.attributes
                0x0000000000000340       0x10 util-linux/lib.a(mount.o)
 .gnu.attributes
                0x0000000000000350       0x10 util-linux/lib.a(umount.o)
 .gnu.attributes
                0x0000000000000360       0x10 archival/lib.a(bbunzip.o)
 .gnu.attributes
                0x0000000000000370       0x10 archival/libunarchive/lib.a(decompress_bunzip2.o)
 .gnu.attributes
                0x0000000000000380       0x10 coreutils/lib.a(cat.o)
 .gnu.attributes
                0x0000000000000390       0x10 coreutils/lib.a(chmod.o)
 .gnu.attributes
                0x00000000000003a0       0x10 coreutils/lib.a(cp.o)
 .gnu.attributes
                0x00000000000003b0       0x10 coreutils/lib.a(cut.o)
 .gnu.attributes
                0x00000000000003c0       0x10 coreutils/lib.a(date.o)
 .gnu.attributes
                0x00000000000003d0       0x10 coreutils/lib.a(echo.o)
 .gnu.attributes
                0x00000000000003e0       0x10 coreutils/lib.a(expr.o)
 .gnu.attributes
                0x00000000000003f0       0x10 coreutils/lib.a(false.o)
 .gnu.attributes
                0x0000000000000400       0x10 coreutils/lib.a(head.o)
 .gnu.attributes
                0x0000000000000410       0x10 coreutils/lib.a(ln.o)
 .gnu.attributes
                0x0000000000000420       0x10 coreutils/lib.a(ls.o)
 .gnu.attributes
                0x0000000000000430       0x10 coreutils/lib.a(mkdir.o)
 .gnu.attributes
                0x0000000000000440       0x10 coreutils/lib.a(printf.o)
 .gnu.attributes
                0x0000000000000450       0x10 coreutils/lib.a(rm.o)
 .gnu.attributes
                0x0000000000000460       0x10 coreutils/lib.a(sleep.o)
 .gnu.attributes
                0x0000000000000470       0x10 coreutils/lib.a(tail.o)
 .gnu.attributes
                0x0000000000000480       0x10 coreutils/lib.a(test.o)
 .gnu.attributes
                0x0000000000000490       0x10 coreutils/lib.a(test_ptr_hack.o)
 .gnu.attributes
                0x00000000000004a0       0x10 coreutils/lib.a(true.o)
 .gnu.attributes
                0x00000000000004b0       0x10 coreutils/lib.a(wc.o)
 .gnu.attributes
                0x00000000000004c0       0x10 coreutils/libcoreutils/lib.a(cp_mv_stat.o)
 .gnu.attributes
                0x00000000000004d0       0x10 editors/lib.a(awk.o)
 .gnu.attributes
                0x00000000000004e0       0x10 findutils/lib.a(grep.o)
 .gnu.attributes
                0x00000000000004f0       0x10 init/lib.a(halt.o)
 .gnu.attributes
                0x0000000000000500       0x10 init/lib.a(init.o)
 .gnu.attributes
                0x0000000000000510       0x10 libbb/lib.a(bb_do_delay.o)
 .gnu.attributes
                0x0000000000000520       0x10 libbb/lib.a(bb_strtonum.o)
 .gnu.attributes
                0x0000000000000530       0x10 libbb/lib.a(change_identity.o)
 .gnu.attributes
                0x0000000000000540       0x10 libbb/lib.a(compare_string_array.o)
 .gnu.attributes
                0x0000000000000550       0x10 libbb/lib.a(concat_path_file.o)
 .gnu.attributes
                0x0000000000000560       0x10 libbb/lib.a(copy_file.o)
 .gnu.attributes
                0x0000000000000570       0x10 libbb/lib.a(correct_password.o)
 .gnu.attributes
                0x0000000000000580       0x10 libbb/lib.a(crc32.o)
 .gnu.attributes
                0x0000000000000590       0x10 libbb/lib.a(create_icmp6_socket.o)
 .gnu.attributes
                0x00000000000005a0       0x10 libbb/lib.a(create_icmp_socket.o)
 .gnu.attributes
                0x00000000000005b0       0x10 libbb/lib.a(device_open.o)
 .gnu.attributes
                0x00000000000005c0       0x10 libbb/lib.a(execable.o)
 .gnu.attributes
                0x00000000000005d0       0x10 libbb/lib.a(fclose_nonstdin.o)
 .gnu.attributes
                0x00000000000005e0       0x10 libbb/lib.a(fflush_stdout_and_exit.o)
 .gnu.attributes
                0x00000000000005f0       0x10 libbb/lib.a(find_pid_by_name.o)
 .gnu.attributes
                0x0000000000000600       0x10 libbb/lib.a(get_line_from_file.o)
 .gnu.attributes
                0x0000000000000610       0x10 libbb/lib.a(getopt32.o)
 .gnu.attributes
                0x0000000000000620       0x10 libbb/lib.a(getpty.o)
 .gnu.attributes
                0x0000000000000630       0x10 libbb/lib.a(inet_common.o)
 .gnu.attributes
                0x0000000000000640       0x10 libbb/lib.a(info_msg.o)
 .gnu.attributes
                0x0000000000000650       0x10 libbb/lib.a(inode_hash.o)
 .gnu.attributes
                0x0000000000000660       0x10 libbb/lib.a(isdirectory.o)
 .gnu.attributes
                0x0000000000000670       0x10 libbb/lib.a(lineedit.o)
 .gnu.attributes
                0x0000000000000680       0x10 libbb/lib.a(lineedit_ptr_hack.o)
 .gnu.attributes
                0x0000000000000690       0x10 libbb/lib.a(llist.o)
 .gnu.attributes
                0x00000000000006a0       0x10 libbb/lib.a(login.o)
 .gnu.attributes
                0x00000000000006b0       0x10 libbb/lib.a(make_directory.o)
 .gnu.attributes
                0x00000000000006c0       0x10 libbb/lib.a(match_fstype.o)
 .gnu.attributes
                0x00000000000006d0       0x10 libbb/lib.a(mode_string.o)
 .gnu.attributes
                0x00000000000006e0       0x10 libbb/lib.a(mtab_file.o)
 .gnu.attributes
                0x00000000000006f0       0x10 libbb/lib.a(parse_config.o)
 .gnu.attributes
                0x0000000000000700       0x10 libbb/lib.a(parse_mode.o)
 .gnu.attributes
                0x0000000000000710       0x10 libbb/lib.a(perror_nomsg_and_die.o)
 .gnu.attributes
                0x0000000000000720       0x10 libbb/lib.a(process_escape_sequence.o)
 .gnu.attributes
                0x0000000000000730       0x10 libbb/lib.a(procps.o)
 .gnu.attributes
                0x0000000000000740       0x10 libbb/lib.a(pw_encrypt.o)
 .gnu.attributes
                0x0000000000000750       0x10 libbb/lib.a(recursive_action.o)
 .gnu.attributes
                0x0000000000000760       0x10 libbb/lib.a(remove_file.o)
 .gnu.attributes
                0x0000000000000770       0x10 libbb/lib.a(run_shell.o)
 .gnu.attributes
                0x0000000000000780       0x10 libbb/lib.a(safe_gethostname.o)
 .gnu.attributes
                0x0000000000000790       0x10 libbb/lib.a(safe_strncpy.o)
 .gnu.attributes
                0x00000000000007a0       0x10 libbb/lib.a(setup_environment.o)
 .gnu.attributes
                0x00000000000007b0       0x10 libbb/lib.a(signals.o)
 .gnu.attributes
                0x00000000000007c0       0x10 libbb/lib.a(simplify_path.o)
 .gnu.attributes
                0x00000000000007d0       0x10 libbb/lib.a(skip_whitespace.o)
 .gnu.attributes
                0x00000000000007e0       0x10 libbb/lib.a(strrstr.o)
 .gnu.attributes
                0x00000000000007f0       0x10 libbb/lib.a(time.o)
 .gnu.attributes
                0x0000000000000800       0x10 libbb/lib.a(u_signal_names.o)
 .gnu.attributes
                0x0000000000000810       0x10 libbb/lib.a(vfork_daemon_rexec.o)
 .gnu.attributes
                0x0000000000000820       0x10 libbb/lib.a(wfopen.o)
 .gnu.attributes
                0x0000000000000830       0x10 libbb/lib.a(wfopen_input.o)
 .gnu.attributes
                0x0000000000000840       0x10 libbb/lib.a(xatonum.o)
 .gnu.attributes
                0x0000000000000850       0x10 libbb/lib.a(xconnect.o)
 .gnu.attributes
                0x0000000000000860       0x10 libbb/lib.a(xfuncs.o)
 .gnu.attributes
                0x0000000000000870       0x10 libbb/lib.a(xgetcwd.o)
 .gnu.attributes
                0x0000000000000880       0x10 libbb/lib.a(xgethostbyname.o)
 .gnu.attributes
                0x0000000000000890       0x10 libbb/lib.a(xreadlink.o)
 .gnu.attributes
                0x00000000000008a0       0x10 libbb/lib.a(xrealloc_vector.o)
 .gnu.attributes
                0x00000000000008b0       0x10 libbb/lib.a(xregcomp.o)
 .gnu.attributes
                0x00000000000008c0       0x10 libbb/lib.a(ask_confirmation.o)
 .gnu.attributes
                0x00000000000008d0       0x10 libbb/lib.a(bb_askpass.o)
 .gnu.attributes
                0x00000000000008e0       0x10 libbb/lib.a(bb_pwd.o)
 .gnu.attributes
                0x00000000000008f0       0x10 libbb/lib.a(bb_qsort.o)
 .gnu.attributes
                0x0000000000000900       0x10 libbb/lib.a(concat_subpath_file.o)
 .gnu.attributes
                0x0000000000000910       0x10 libbb/lib.a(herror_msg_and_die.o)
 .gnu.attributes
                0x0000000000000920       0x10 /data/xiaoning/RealTek/HN120/toolchain/msdk-4.4.7-mips-EL-3.10-u0.9.33-m32t-140827/bin/../lib/gcc/mips-linux-uclibc/4.4.7/soft-float/el/libgcc.a(_bswapsi2.o)
 .gnu.attributes
                0x0000000000000930       0x10 /data/xiaoning/RealTek/HN120/toolchain/msdk-4.4.7-mips-EL-3.10-u0.9.33-m32t-140827/bin/../lib/gcc/mips-linux-uclibc/4.4.7/soft-float/el/libgcc.a(_fixunsdfsi.o)
 .gnu.attributes
                0x0000000000000940       0x10 /data/xiaoning/RealTek/HN120/toolchain/msdk-4.4.7-mips-EL-3.10-u0.9.33-m32t-140827/bin/../lib/gcc/mips-linux-uclibc/4.4.7/soft-float/el/libgcc.a(_udivdi3.o)
 .gnu.attributes
                0x0000000000000950       0x10 /data/xiaoning/RealTek/HN120/toolchain/msdk-4.4.7-mips-EL-3.10-u0.9.33-m32t-140827/bin/../lib/gcc/mips-linux-uclibc/4.4.7/soft-float/el/libgcc.a(adddf3.o)
 .gnu.attributes
                0x0000000000000960       0x10 /data/xiaoning/RealTek/HN120/toolchain/msdk-4.4.7-mips-EL-3.10-u0.9.33-m32t-140827/bin/../lib/gcc/mips-linux-uclibc/4.4.7/soft-float/el/libgcc.a(divdf3.o)
 .gnu.attributes
                0x0000000000000970       0x10 /data/xiaoning/RealTek/HN120/toolchain/msdk-4.4.7-mips-EL-3.10-u0.9.33-m32t-140827/bin/../lib/gcc/mips-linux-uclibc/4.4.7/soft-float/el/libgcc.a(eqdf2.o)
 .gnu.attributes
                0x0000000000000980       0x10 /data/xiaoning/RealTek/HN120/toolchain/msdk-4.4.7-mips-EL-3.10-u0.9.33-m32t-140827/bin/../lib/gcc/mips-linux-uclibc/4.4.7/soft-float/el/libgcc.a(gedf2.o)
 .gnu.attributes
                0x0000000000000990       0x10 /data/xiaoning/RealTek/HN120/toolchain/msdk-4.4.7-mips-EL-3.10-u0.9.33-m32t-140827/bin/../lib/gcc/mips-linux-uclibc/4.4.7/soft-float/el/libgcc.a(ledf2.o)
 .gnu.attributes
                0x00000000000009a0       0x10 /data/xiaoning/RealTek/HN120/toolchain/msdk-4.4.7-mips-EL-3.10-u0.9.33-m32t-140827/bin/../lib/gcc/mips-linux-uclibc/4.4.7/soft-float/el/libgcc.a(muldf3.o)
 .gnu.attributes
                0x00000000000009b0       0x10 /data/xiaoning/RealTek/HN120/toolchain/msdk-4.4.7-mips-EL-3.10-u0.9.33-m32t-140827/bin/../lib/gcc/mips-linux-uclibc/4.4.7/soft-float/el/libgcc.a(subdf3.o)
 .gnu.attributes
                0x00000000000009c0       0x10 /data/xiaoning/RealTek/HN120/toolchain/msdk-4.4.7-mips-EL-3.10-u0.9.33-m32t-140827/bin/../lib/gcc/mips-linux-uclibc/4.4.7/soft-float/el/libgcc.a(fixdfsi.o)
 .gnu.attributes
                0x00000000000009d0       0x10 /data/xiaoning/RealTek/HN120/toolchain/msdk-4.4.7-mips-EL-3.10-u0.9.33-m32t-140827/bin/../lib/gcc/mips-linux-uclibc/4.4.7/soft-float/el/libgcc.a(floatsidf.o)
 .gnu.attributes
                0x00000000000009e0       0x10 /data/xiaoning/RealTek/HN120/toolchain/msdk-4.4.7-mips-EL-3.10-u0.9.33-m32t-140827/bin/../lib/gcc/mips-linux-uclibc/4.4.7/soft-float/el/libgcc.a(floatunsidf.o)
 .gnu.attributes
                0x00000000000009f0       0x10 /data/xiaoning/RealTek/HN120/toolchain/msdk-4.4.7-mips-EL-3.10-u0.9.33-m32t-140827/bin/../lib/gcc/mips-linux-uclibc/4.4.7/soft-float/el/crtend.o

.gptab.sdata
 *(SORT(.gptab.data))
 *(SORT(.gptab.sdata))

.gptab.sbss
 *(SORT(.gptab.bss))
 *(SORT(.gptab.sbss))

.mdebug.abi32   0x0000000000000000        0x0
 *(SORT(.mdebug.abi32))
 .mdebug.abi32  0x0000000000000000        0x0 /data/xiaoning/RealTek/HN120/toolchain/msdk-4.4.7-mips-EL-3.10-u0.9.33-m32t-140827/bin/../lib/gcc/mips-linux-uclibc/4.4.7/../../../../mips-linux-uclibc/lib/crti.o
 .mdebug.abi32  0x0000000000000000        0x0 /data/xiaoning/RealTek/HN120/toolchain/msdk-4.4.7-mips-EL-3.10-u0.9.33-m32t-140827/bin/../lib/gcc/mips-linux-uclibc/4.4.7/soft-float/el/crtbegin.o
 .mdebug.abi32  0x0000000000000000        0x0 applets/built-in.o
 .mdebug.abi32  0x0000000000000000        0x0 libbb/lib.a(appletlib.o)
 .mdebug.abi32  0x0000000000000000        0x0 libbb/lib.a(bb_basename.o)
 .mdebug.abi32  0x0000000000000000        0x0 libbb/lib.a(default_error_retval.o)
 .mdebug.abi32  0x0000000000000000        0x0 libbb/lib.a(error_msg_and_die.o)
 .mdebug.abi32  0x0000000000000000        0x0 libbb/lib.a(full_write.o)
 .mdebug.abi32  0x0000000000000000        0x0 libbb/lib.a(get_last_path_component.o)
 .mdebug.abi32  0x0000000000000000        0x0 libbb/lib.a(last_char_is.o)
 .mdebug.abi32  0x0000000000000000        0x0 libbb/lib.a(messages.o)
 .mdebug.abi32  0x0000000000000000        0x0 libbb/lib.a(ptr_to_globals.o)
 .mdebug.abi32  0x0000000000000000        0x0 libbb/lib.a(safe_write.o)
 .mdebug.abi32  0x0000000000000000        0x0 libbb/lib.a(verror_msg.o)
 .mdebug.abi32  0x0000000000000000        0x0 libbb/lib.a(xfunc_die.o)
 .mdebug.abi32  0x0000000000000000        0x0 libbb/lib.a(xfuncs_printf.o)
 .mdebug.abi32  0x0000000000000000        0x0 libbb/lib.a(copyfd.o)
 .mdebug.abi32  0x0000000000000000        0x0 libbb/lib.a(error_msg.o)
 .mdebug.abi32  0x0000000000000000        0x0 libbb/lib.a(perror_msg.o)
 .mdebug.abi32  0x0000000000000000        0x0 libbb/lib.a(perror_msg_and_die.o)
 .mdebug.abi32  0x0000000000000000        0x0 libbb/lib.a(read.o)
 .mdebug.abi32  0x0000000000000000        0x0 libbb/lib.a(safe_poll.o)
 .mdebug.abi32  0x0000000000000000        0x0 loginutils/lib.a(login.o)
 .mdebug.abi32  0x0000000000000000        0x0 modutils/lib.a(depmod.o)
 .mdebug.abi32  0x0000000000000000        0x0 modutils/lib.a(insmod.o)
 .mdebug.abi32  0x0000000000000000        0x0 modutils/lib.a(lsmod.o)
 .mdebug.abi32  0x0000000000000000        0x0 modutils/lib.a(modprobe.o)
 .mdebug.abi32  0x0000000000000000        0x0 modutils/lib.a(modutils.o)
 .mdebug.abi32  0x0000000000000000        0x0 modutils/lib.a(rmmod.o)
 .mdebug.abi32  0x0000000000000000        0x0 networking/lib.a(hostname.o)
 .mdebug.abi32  0x0000000000000000        0x0 networking/lib.a(ifconfig.o)
 .mdebug.abi32  0x0000000000000000        0x0 networking/lib.a(interface.o)
 .mdebug.abi32  0x0000000000000000        0x0 networking/lib.a(ip.o)
 .mdebug.abi32  0x0000000000000000        0x0 networking/lib.a(ping.o)
 .mdebug.abi32  0x0000000000000000        0x0 networking/lib.a(route.o)
 .mdebug.abi32  0x0000000000000000        0x0 networking/lib.a(telnetd.o)
 .mdebug.abi32  0x0000000000000000        0x0 networking/lib.a(tftp.o)
 .mdebug.abi32  0x0000000000000000        0x0 networking/lib.a(traceroute.o)
 .mdebug.abi32  0x0000000000000000        0x0 networking/lib.a(vconfig.o)
 .mdebug.abi32  0x0000000000000000        0x0 networking/libiproute/lib.a(ip_parse_common_args.o)
 .mdebug.abi32  0x0000000000000000        0x0 networking/libiproute/lib.a(iptunnel.o)
 .mdebug.abi32  0x0000000000000000        0x0 networking/libiproute/lib.a(rt_names.o)
 .mdebug.abi32  0x0000000000000000        0x0 networking/libiproute/lib.a(utils.o)
 .mdebug.abi32  0x0000000000000000        0x0 procps/lib.a(free.o)
 .mdebug.abi32  0x0000000000000000        0x0 procps/lib.a(kill.o)
 .mdebug.abi32  0x0000000000000000        0x0 procps/lib.a(ps.o)
 .mdebug.abi32  0x0000000000000000        0x0 procps/lib.a(renice.o)
 .mdebug.abi32  0x0000000000000000        0x0 procps/lib.a(top.o)
 .mdebug.abi32  0x0000000000000000        0x0 procps/lib.a(uptime.o)
 .mdebug.abi32  0x0000000000000000        0x0 shell/lib.a(ash.o)
 .mdebug.abi32  0x0000000000000000        0x0 shell/lib.a(ash_ptr_hack.o)
 .mdebug.abi32  0x0000000000000000        0x0 sysklogd/lib.a(klogd.o)
 .mdebug.abi32  0x0000000000000000        0x0 sysklogd/lib.a(syslogd_and_logger.o)
 .mdebug.abi32  0x0000000000000000        0x0 util-linux/lib.a(mount.o)
 .mdebug.abi32  0x0000000000000000        0x0 util-linux/lib.a(umount.o)
 .mdebug.abi32  0x0000000000000000        0x0 archival/lib.a(bbunzip.o)
 .mdebug.abi32  0x0000000000000000        0x0 archival/libunarchive/lib.a(decompress_bunzip2.o)
 .mdebug.abi32  0x0000000000000000        0x0 coreutils/lib.a(cat.o)
 .mdebug.abi32  0x0000000000000000        0x0 coreutils/lib.a(chmod.o)
 .mdebug.abi32  0x0000000000000000        0x0 coreutils/lib.a(cp.o)
 .mdebug.abi32  0x0000000000000000        0x0 coreutils/lib.a(cut.o)
 .mdebug.abi32  0x0000000000000000        0x0 coreutils/lib.a(date.o)
 .mdebug.abi32  0x0000000000000000        0x0 coreutils/lib.a(echo.o)
 .mdebug.abi32  0x0000000000000000        0x0 coreutils/lib.a(expr.o)
 .mdebug.abi32  0x0000000000000000        0x0 coreutils/lib.a(false.o)
 .mdebug.abi32  0x0000000000000000        0x0 coreutils/lib.a(head.o)
 .mdebug.abi32  0x0000000000000000        0x0 coreutils/lib.a(ln.o)
 .mdebug.abi32  0x0000000000000000        0x0 coreutils/lib.a(ls.o)
 .mdebug.abi32  0x0000000000000000        0x0 coreutils/lib.a(mkdir.o)
 .mdebug.abi32  0x0000000000000000        0x0 coreutils/lib.a(printf.o)
 .mdebug.abi32  0x0000000000000000        0x0 coreutils/lib.a(rm.o)
 .mdebug.abi32  0x0000000000000000        0x0 coreutils/lib.a(sleep.o)
 .mdebug.abi32  0x0000000000000000        0x0 coreutils/lib.a(tail.o)
 .mdebug.abi32  0x0000000000000000        0x0 coreutils/lib.a(test.o)
 .mdebug.abi32  0x0000000000000000        0x0 coreutils/lib.a(test_ptr_hack.o)
 .mdebug.abi32  0x0000000000000000        0x0 coreutils/lib.a(true.o)
 .mdebug.abi32  0x0000000000000000        0x0 coreutils/lib.a(wc.o)
 .mdebug.abi32  0x0000000000000000        0x0 coreutils/libcoreutils/lib.a(cp_mv_stat.o)
 .mdebug.abi32  0x0000000000000000        0x0 editors/lib.a(awk.o)
 .mdebug.abi32  0x0000000000000000        0x0 findutils/lib.a(grep.o)
 .mdebug.abi32  0x0000000000000000        0x0 init/lib.a(halt.o)
 .mdebug.abi32  0x0000000000000000        0x0 init/lib.a(init.o)
 .mdebug.abi32  0x0000000000000000        0x0 libbb/lib.a(bb_do_delay.o)
 .mdebug.abi32  0x0000000000000000        0x0 libbb/lib.a(bb_strtonum.o)
 .mdebug.abi32  0x0000000000000000        0x0 libbb/lib.a(change_identity.o)
 .mdebug.abi32  0x0000000000000000        0x0 libbb/lib.a(compare_string_array.o)
 .mdebug.abi32  0x0000000000000000        0x0 libbb/lib.a(concat_path_file.o)
 .mdebug.abi32  0x0000000000000000        0x0 libbb/lib.a(copy_file.o)
 .mdebug.abi32  0x0000000000000000        0x0 libbb/lib.a(correct_password.o)
 .mdebug.abi32  0x0000000000000000        0x0 libbb/lib.a(crc32.o)
 .mdebug.abi32  0x0000000000000000        0x0 libbb/lib.a(create_icmp6_socket.o)
 .mdebug.abi32  0x0000000000000000        0x0 libbb/lib.a(create_icmp_socket.o)
 .mdebug.abi32  0x0000000000000000        0x0 libbb/lib.a(device_open.o)
 .mdebug.abi32  0x0000000000000000        0x0 libbb/lib.a(execable.o)
 .mdebug.abi32  0x0000000000000000        0x0 libbb/lib.a(fclose_nonstdin.o)
 .mdebug.abi32  0x0000000000000000        0x0 libbb/lib.a(fflush_stdout_and_exit.o)
 .mdebug.abi32  0x0000000000000000        0x0 libbb/lib.a(find_pid_by_name.o)
 .mdebug.abi32  0x0000000000000000        0x0 libbb/lib.a(get_line_from_file.o)
 .mdebug.abi32  0x0000000000000000        0x0 libbb/lib.a(getopt32.o)
 .mdebug.abi32  0x0000000000000000        0x0 libbb/lib.a(getpty.o)
 .mdebug.abi32  0x0000000000000000        0x0 libbb/lib.a(inet_common.o)
 .mdebug.abi32  0x0000000000000000        0x0 libbb/lib.a(info_msg.o)
 .mdebug.abi32  0x0000000000000000        0x0 libbb/lib.a(inode_hash.o)
 .mdebug.abi32  0x0000000000000000        0x0 libbb/lib.a(isdirectory.o)
 .mdebug.abi32  0x0000000000000000        0x0 libbb/lib.a(lineedit.o)
 .mdebug.abi32  0x0000000000000000        0x0 libbb/lib.a(lineedit_ptr_hack.o)
 .mdebug.abi32  0x0000000000000000        0x0 libbb/lib.a(llist.o)
 .mdebug.abi32  0x0000000000000000        0x0 libbb/lib.a(login.o)
 .mdebug.abi32  0x0000000000000000        0x0 libbb/lib.a(make_directory.o)
 .mdebug.abi32  0x0000000000000000        0x0 libbb/lib.a(match_fstype.o)
 .mdebug.abi32  0x0000000000000000        0x0 libbb/lib.a(mode_string.o)
 .mdebug.abi32  0x0000000000000000        0x0 libbb/lib.a(mtab_file.o)
 .mdebug.abi32  0x0000000000000000        0x0 libbb/lib.a(parse_config.o)
 .mdebug.abi32  0x0000000000000000        0x0 libbb/lib.a(parse_mode.o)
 .mdebug.abi32  0x0000000000000000        0x0 libbb/lib.a(perror_nomsg_and_die.o)
 .mdebug.abi32  0x0000000000000000        0x0 libbb/lib.a(process_escape_sequence.o)
 .mdebug.abi32  0x0000000000000000        0x0 libbb/lib.a(procps.o)
 .mdebug.abi32  0x0000000000000000        0x0 libbb/lib.a(pw_encrypt.o)
 .mdebug.abi32  0x0000000000000000        0x0 libbb/lib.a(recursive_action.o)
 .mdebug.abi32  0x0000000000000000        0x0 libbb/lib.a(remove_file.o)
 .mdebug.abi32  0x0000000000000000        0x0 libbb/lib.a(run_shell.o)
 .mdebug.abi32  0x0000000000000000        0x0 libbb/lib.a(safe_gethostname.o)
 .mdebug.abi32  0x0000000000000000        0x0 libbb/lib.a(safe_strncpy.o)
 .mdebug.abi32  0x0000000000000000        0x0 libbb/lib.a(setup_environment.o)
 .mdebug.abi32  0x0000000000000000        0x0 libbb/lib.a(signals.o)
 .mdebug.abi32  0x0000000000000000        0x0 libbb/lib.a(simplify_path.o)
 .mdebug.abi32  0x0000000000000000        0x0 libbb/lib.a(skip_whitespace.o)
 .mdebug.abi32  0x0000000000000000        0x0 libbb/lib.a(strrstr.o)
 .mdebug.abi32  0x0000000000000000        0x0 libbb/lib.a(time.o)
 .mdebug.abi32  0x0000000000000000        0x0 libbb/lib.a(u_signal_names.o)
 .mdebug.abi32  0x0000000000000000        0x0 libbb/lib.a(vfork_daemon_rexec.o)
 .mdebug.abi32  0x0000000000000000        0x0 libbb/lib.a(wfopen.o)
 .mdebug.abi32  0x0000000000000000        0x0 libbb/lib.a(wfopen_input.o)
 .mdebug.abi32  0x0000000000000000        0x0 libbb/lib.a(xatonum.o)
 .mdebug.abi32  0x0000000000000000        0x0 libbb/lib.a(xconnect.o)
 .mdebug.abi32  0x0000000000000000        0x0 libbb/lib.a(xfuncs.o)
 .mdebug.abi32  0x0000000000000000        0x0 libbb/lib.a(xgetcwd.o)
 .mdebug.abi32  0x0000000000000000        0x0 libbb/lib.a(xgethostbyname.o)
 .mdebug.abi32  0x0000000000000000        0x0 libbb/lib.a(xreadlink.o)
 .mdebug.abi32  0x0000000000000000        0x0 libbb/lib.a(xrealloc_vector.o)
 .mdebug.abi32  0x0000000000000000        0x0 libbb/lib.a(xregcomp.o)
 .mdebug.abi32  0x0000000000000000        0x0 libbb/lib.a(ask_confirmation.o)
 .mdebug.abi32  0x0000000000000000        0x0 libbb/lib.a(bb_askpass.o)
 .mdebug.abi32  0x0000000000000000        0x0 libbb/lib.a(bb_pwd.o)
 .mdebug.abi32  0x0000000000000000        0x0 libbb/lib.a(bb_qsort.o)
 .mdebug.abi32  0x0000000000000000        0x0 libbb/lib.a(concat_subpath_file.o)
 .mdebug.abi32  0x0000000000000000        0x0 libbb/lib.a(herror_msg_and_die.o)
 .mdebug.abi32  0x0000000000000000        0x0 /data/xiaoning/RealTek/HN120/toolchain/msdk-4.4.7-mips-EL-3.10-u0.9.33-m32t-140827/bin/../lib/gcc/mips-linux-uclibc/4.4.7/soft-float/el/libgcc.a(_bswapsi2.o)
 .mdebug.abi32  0x0000000000000000        0x0 /data/xiaoning/RealTek/HN120/toolchain/msdk-4.4.7-mips-EL-3.10-u0.9.33-m32t-140827/bin/../lib/gcc/mips-linux-uclibc/4.4.7/soft-float/el/libgcc.a(_fixunsdfsi.o)
 .mdebug.abi32  0x0000000000000000        0x0 /data/xiaoning/RealTek/HN120/toolchain/msdk-4.4.7-mips-EL-3.10-u0.9.33-m32t-140827/bin/../lib/gcc/mips-linux-uclibc/4.4.7/soft-float/el/libgcc.a(_udivdi3.o)
 .mdebug.abi32  0x0000000000000000        0x0 /data/xiaoning/RealTek/HN120/toolchain/msdk-4.4.7-mips-EL-3.10-u0.9.33-m32t-140827/bin/../lib/gcc/mips-linux-uclibc/4.4.7/soft-float/el/libgcc.a(adddf3.o)
 .mdebug.abi32  0x0000000000000000        0x0 /data/xiaoning/RealTek/HN120/toolchain/msdk-4.4.7-mips-EL-3.10-u0.9.33-m32t-140827/bin/../lib/gcc/mips-linux-uclibc/4.4.7/soft-float/el/libgcc.a(divdf3.o)
 .mdebug.abi32  0x0000000000000000        0x0 /data/xiaoning/RealTek/HN120/toolchain/msdk-4.4.7-mips-EL-3.10-u0.9.33-m32t-140827/bin/../lib/gcc/mips-linux-uclibc/4.4.7/soft-float/el/libgcc.a(eqdf2.o)
 .mdebug.abi32  0x0000000000000000        0x0 /data/xiaoning/RealTek/HN120/toolchain/msdk-4.4.7-mips-EL-3.10-u0.9.33-m32t-140827/bin/../lib/gcc/mips-linux-uclibc/4.4.7/soft-float/el/libgcc.a(gedf2.o)
 .mdebug.abi32  0x0000000000000000        0x0 /data/xiaoning/RealTek/HN120/toolchain/msdk-4.4.7-mips-EL-3.10-u0.9.33-m32t-140827/bin/../lib/gcc/mips-linux-uclibc/4.4.7/soft-float/el/libgcc.a(ledf2.o)
 .mdebug.abi32  0x0000000000000000        0x0 /data/xiaoning/RealTek/HN120/toolchain/msdk-4.4.7-mips-EL-3.10-u0.9.33-m32t-140827/bin/../lib/gcc/mips-linux-uclibc/4.4.7/soft-float/el/libgcc.a(muldf3.o)
 .mdebug.abi32  0x0000000000000000        0x0 /data/xiaoning/RealTek/HN120/toolchain/msdk-4.4.7-mips-EL-3.10-u0.9.33-m32t-140827/bin/../lib/gcc/mips-linux-uclibc/4.4.7/soft-float/el/libgcc.a(subdf3.o)
 .mdebug.abi32  0x0000000000000000        0x0 /data/xiaoning/RealTek/HN120/toolchain/msdk-4.4.7-mips-EL-3.10-u0.9.33-m32t-140827/bin/../lib/gcc/mips-linux-uclibc/4.4.7/soft-float/el/libgcc.a(fixdfsi.o)
 .mdebug.abi32  0x0000000000000000        0x0 /data/xiaoning/RealTek/HN120/toolchain/msdk-4.4.7-mips-EL-3.10-u0.9.33-m32t-140827/bin/../lib/gcc/mips-linux-uclibc/4.4.7/soft-float/el/libgcc.a(floatsidf.o)
 .mdebug.abi32  0x0000000000000000        0x0 /data/xiaoning/RealTek/HN120/toolchain/msdk-4.4.7-mips-EL-3.10-u0.9.33-m32t-140827/bin/../lib/gcc/mips-linux-uclibc/4.4.7/soft-float/el/libgcc.a(floatunsidf.o)
 .mdebug.abi32  0x0000000000000000        0x0 /data/xiaoning/RealTek/HN120/toolchain/msdk-4.4.7-mips-EL-3.10-u0.9.33-m32t-140827/bin/../lib/gcc/mips-linux-uclibc/4.4.7/soft-float/el/crtend.o
 .mdebug.abi32  0x0000000000000000        0x0 /data/xiaoning/RealTek/HN120/toolchain/msdk-4.4.7-mips-EL-3.10-u0.9.33-m32t-140827/bin/../lib/gcc/mips-linux-uclibc/4.4.7/../../../../mips-linux-uclibc/lib/crtn.o

.mdebug.abiN32
 *(SORT(.mdebug.abiN32))

.mdebug.abi64
 *(SORT(.mdebug.abi64))

.mdebug.abiO64
 *(SORT(.mdebug.abiO64))

.mdebug.eabi32
 *(SORT(.mdebug.eabi32))

.mdebug.eabi64
 *(SORT(.mdebug.eabi64))

.gcc_compiled_long32
 *(SORT(.gcc_compiled_long32))

.gcc_compiled_long64
 *(SORT(.gcc_compiled_long64))

/DISCARD/
 *(SORT(.note.GNU-stack))
 *(SORT(.gnu_debuglink))
 *(SORT(.gnu.lto_*))
OUTPUT(busybox_unstripped elf32-tradlittlemips)
